---
triple:          'arm64-apple-darwin'
binary-path:     '/Users/jessedalmeida/Documents/GitHub/CTR_Kinematics/main'
relocations:
  - { offset: 0x44, size: 0x8, addend: 0x0, symName: __ZN5EigenL4lastE, symObjAddr: 0x743B0, symBinAddr: 0x10000C000, symSize: 0x0 }
  - { offset: 0x1B29, size: 0x8, addend: 0x0, symName: __ZN5Eigen8internal28check_static_allocation_sizeIdLi2EEEvv, symObjAddr: 0x3174, symBinAddr: 0x10000444C, symSize: 0x4 }
  - { offset: 0x1B56, size: 0x8, addend: 0x0, symName: __ZN5Eigen8internal12print_matrixINS_6MatrixIdLi1ELi2ELi1ELi1ELi2EEEEERNSt3__113basic_ostreamIcNS4_11char_traitsIcEEEES9_RKT_RKNS_8IOFormatE, symObjAddr: 0x3578, symBinAddr: 0x100004850, symSize: 0x580 }
  - { offset: 0x1CDF, size: 0x8, addend: 0x0, symName: __ZN5Eigen8internal24call_assignment_no_aliasINS_6MatrixIdLi1ELi2ELi1ELi1ELi2EEENS_9TransposeINS2_IdLi2ELi1ELi0ELi2ELi1EEEEENS0_9assign_opIddEEEEvRT_RKT0_RKT1_, symObjAddr: 0x47B4, symBinAddr: 0x100005A8C, symSize: 0x3C }
  - { offset: 0x1DB7, size: 0x8, addend: 0x0, symName: __ZN5Eigen8internal18check_for_aliasingINS_6MatrixIdLi1ELi2ELi1ELi1ELi2EEENS_9TransposeINS2_IdLi2ELi1ELi0ELi2ELi1EEEEEEEvRKT_RKT0_, symObjAddr: 0x4870, symBinAddr: 0x100005B48, symSize: 0x14 }
  - { offset: 0x1E02, size: 0x8, addend: 0x0, symName: __ZN5Eigen8internal26call_dense_assignment_loopINS_6MatrixIdLi1ELi2ELi1ELi1ELi2EEENS_9TransposeINS2_IdLi2ELi1ELi0ELi2ELi1EEEEENS0_9assign_opIddEEEEvRT_RKT0_RKT1_, symObjAddr: 0x4884, symBinAddr: 0x100005B5C, symSize: 0xE0 }
  - { offset: 0x1EB6, size: 0x8, addend: 0x0, symName: __ZN5Eigen8internal17resize_if_allowedINS_6MatrixIdLi1ELi2ELi1ELi1ELi2EEENS_9TransposeINS2_IdLi2ELi1ELi0ELi2ELi1EEEEEddEEvRT_RKT0_RKNS0_9assign_opIT1_T2_EE, symObjAddr: 0x4998, symBinAddr: 0x100005C70, symSize: 0xF8 }
  - { offset: 0x1F76, size: 0x8, addend: 0x0, symName: __ZN5Eigen8internal22ignore_unused_variableIlEEvRKT_, symObjAddr: 0x4E44, symBinAddr: 0x10000611C, symSize: 0x10 }
  - { offset: 0x2021, size: 0x8, addend: 0x0, symName: __ZN5Eigen8internal6pstoreId19__simd128_float64_tEEvPT_RKT0_, symObjAddr: 0x530C, symBinAddr: 0x1000065E4, symSize: 0x2C }
  - { offset: 0x20DA, size: 0x8, addend: 0x0, symName: __ZN5Eigen8internal5ploadI19__simd128_float64_tEET_PKNS0_15unpacket_traitsIS3_E4typeE, symObjAddr: 0x53B4, symBinAddr: 0x10000668C, symSize: 0x28 }
  - { offset: 0x21D4, size: 0x8, addend: 0x0, symName: __ZN5EigenL6lastp1E, symObjAddr: 0x743B1, symBinAddr: 0x10000C001, symSize: 0x0 }
  - { offset: 0x21ED, size: 0x8, addend: 0x0, symName: __ZN5EigenL3allE, symObjAddr: 0x743B4, symBinAddr: 0x10000C004, symSize: 0x0 }
  - { offset: 0x2206, size: 0x8, addend: 0x0, symName: __ZN5EigenL3fixILi1EEE, symObjAddr: 0x743B3, symBinAddr: 0x10000C003, symSize: 0x0 }
  - { offset: 0xCC34, size: 0x8, addend: 0x0, symName: __ZN5EigenlsINS_9TransposeINS_6MatrixIdLi2ELi1ELi0ELi2ELi1EEEEEEERNSt3__113basic_ostreamIcNS5_11char_traitsIcEEEESA_RKNS_9DenseBaseIT_EE, symObjAddr: 0x8E0, symBinAddr: 0x100001BB8, symSize: 0x208 }
  - { offset: 0x11F8F, size: 0x8, addend: 0x0, symName: __ZNSt3__124__put_character_sequenceB8ne180100IcNS_11char_traitsIcEEEERNS_13basic_ostreamIT_T0_EES7_PKS4_m, symObjAddr: 0x2588, symBinAddr: 0x100003860, symSize: 0x1EC }
  - { offset: 0x1300B, size: 0x8, addend: 0x0, symName: __ZNSt3__1neB8ne180100IPNS_12basic_stringIcNS_11char_traitsIcEENS_9allocatorIcEEEEEEbRKNS_11__wrap_iterIT_EESC_, symObjAddr: 0x50C, symBinAddr: 0x1000017E4, symSize: 0x34 }
  - { offset: 0x1304E, size: 0x8, addend: 0x0, symName: __ZNSt3__1lsB8ne180100INS_11char_traitsIcEEEERNS_13basic_ostreamIcT_EES6_PKc, symObjAddr: 0x558, symBinAddr: 0x100001830, symSize: 0x48 }
  - { offset: 0x13094, size: 0x8, addend: 0x0, symName: __ZNSt3__1lsB8ne180100IcNS_11char_traitsIcEENS_9allocatorIcEEEERNS_13basic_ostreamIT_T0_EES9_RKNS_12basic_stringIS6_S7_T1_EE, symObjAddr: 0x5A0, symBinAddr: 0x100001878, symSize: 0x4C }
  - { offset: 0x130EC, size: 0x8, addend: 0x0, symName: __ZNSt3__14endlB8ne180100IcNS_11char_traitsIcEEEERNS_13basic_ostreamIT_T0_EES7_, symObjAddr: 0x638, symBinAddr: 0x100001910, symSize: 0x58 }
  - { offset: 0x1312C, size: 0x8, addend: 0x0, symName: __ZNSt3__1eqB8ne180100IPNS_12basic_stringIcNS_11char_traitsIcEENS_9allocatorIcEEEEEEbRKNS_11__wrap_iterIT_EESC_, symObjAddr: 0xB88, symBinAddr: 0x100001E60, symSize: 0x48 }
  - { offset: 0x1316F, size: 0x8, addend: 0x0, symName: __ZNSt3__118__constexpr_strlenB8ne180100EPKc, symObjAddr: 0xD6C, symBinAddr: 0x100002044, symSize: 0x24 }
  - { offset: 0x1319B, size: 0x8, addend: 0x0, symName: __ZNSt3__122__make_exception_guardB8ne180100INS_6vectorINS_12basic_stringIcNS_11char_traitsIcEENS_9allocatorIcEEEENS5_IS7_EEE16__destroy_vectorEEENS_28__exception_guard_exceptionsIT_EESC_, symObjAddr: 0xFD0, symBinAddr: 0x1000022A8, symSize: 0x40 }
  - { offset: 0x131D0, size: 0x8, addend: 0x0, symName: __ZNSt3__119__allocate_at_leastB8ne180100INS_9allocatorINS_12basic_stringIcNS_11char_traitsIcEENS1_IcEEEEEEEENS_19__allocation_resultINS_16allocator_traitsIT_E7pointerEEERSA_m, symObjAddr: 0x13E0, symBinAddr: 0x1000026B8, symSize: 0x40 }
  - { offset: 0x13213, size: 0x8, addend: 0x0, symName: __ZNSt3__13minB8ne180100ImEERKT_S3_S3_, symObjAddr: 0x1484, symBinAddr: 0x10000275C, symSize: 0x2C }
  - { offset: 0x13457, size: 0x8, addend: 0x0, symName: __ZNSt3__13minB8ne180100ImNS_6__lessIvvEEEERKT_S5_S5_T0_, symObjAddr: 0x1510, symBinAddr: 0x1000027E8, symSize: 0x54 }
  - { offset: 0x13527, size: 0x8, addend: 0x0, symName: __ZNSt3__120__throw_length_errorB8ne180100EPKc, symObjAddr: 0x15F0, symBinAddr: 0x1000028C8, symSize: 0x64 }
  - { offset: 0x1354F, size: 0x8, addend: 0x0, symName: __ZNSt3__117__libcpp_allocateB8ne180100Emm, symObjAddr: 0x175C, symBinAddr: 0x100002A34, symSize: 0x28 }
  - { offset: 0x1358C, size: 0x8, addend: 0x0, symName: __ZNSt3__121__libcpp_operator_newB8ne180100IJmEEEPvDpT_, symObjAddr: 0x1784, symBinAddr: 0x100002A5C, symSize: 0x24 }
  - { offset: 0x135C5, size: 0x8, addend: 0x0, symName: __ZNSt3__130__uninitialized_allocator_copyB8ne180100INS_9allocatorINS_12basic_stringIcNS_11char_traitsIcEENS1_IcEEEEEEPKS6_S9_PS6_EET2_RT_T0_T1_SB_, symObjAddr: 0x1854, symBinAddr: 0x100002B2C, symSize: 0x80 }
  - { offset: 0x13662, size: 0x8, addend: 0x0, symName: __ZNSt3__114__unwrap_rangeB8ne180100IPKNS_12basic_stringIcNS_11char_traitsIcEENS_9allocatorIcEEEES8_EENS_4pairIT0_SA_EET_SC_, symObjAddr: 0x194C, symBinAddr: 0x100002C24, symSize: 0x60 }
  - { offset: 0x136AE, size: 0x8, addend: 0x0, symName: __ZNSt3__135__uninitialized_allocator_copy_implB8ne180100INS_9allocatorINS_12basic_stringIcNS_11char_traitsIcEENS1_IcEEEEEEPKS6_S9_PS6_EET2_RT_T0_T1_SB_, symObjAddr: 0x19AC, symBinAddr: 0x100002C84, symSize: 0xF4 }
  - { offset: 0x1374C, size: 0x8, addend: 0x0, symName: __ZNSt3__113__unwrap_iterB8ne180100IPNS_12basic_stringIcNS_11char_traitsIcEENS_9allocatorIcEEEENS_18__unwrap_iter_implIS7_Lb1EEELi0EEEDTclsrT0_8__unwrapclsr3stdE7declvalIT_EEEESB_, symObjAddr: 0x1AA0, symBinAddr: 0x100002D78, symSize: 0x24 }
  - { offset: 0x13790, size: 0x8, addend: 0x0, symName: __ZNSt3__113__rewrap_iterB8ne180100IPNS_12basic_stringIcNS_11char_traitsIcEENS_9allocatorIcEEEES7_NS_18__unwrap_iter_implIS7_Lb1EEEEET_SA_T0_, symObjAddr: 0x1AC4, symBinAddr: 0x100002D9C, symSize: 0x3C }
  - { offset: 0x137E5, size: 0x8, addend: 0x0, symName: __ZNSt3__19make_pairB8ne180100IPKNS_12basic_stringIcNS_11char_traitsIcEENS_9allocatorIcEEEES8_EENS_4pairINS_18__unwrap_ref_decayIT_E4typeENSA_IT0_E4typeEEEOSB_OSE_, symObjAddr: 0x1B00, symBinAddr: 0x100002DD8, symSize: 0x38 }
  - { offset: 0x13834, size: 0x8, addend: 0x0, symName: __ZNSt3__113__unwrap_iterB8ne180100IPKNS_12basic_stringIcNS_11char_traitsIcEENS_9allocatorIcEEEENS_18__unwrap_iter_implIS8_Lb1EEELi0EEEDTclsrT0_8__unwrapclsr3stdE7declvalIT_EEEESC_, symObjAddr: 0x1B38, symBinAddr: 0x100002E10, symSize: 0x24 }
  - { offset: 0x1399F, size: 0x8, addend: 0x0, symName: __ZNSt3__112__to_addressB8ne180100IKNS_12basic_stringIcNS_11char_traitsIcEENS_9allocatorIcEEEEEEPT_S9_, symObjAddr: 0x1BF0, symBinAddr: 0x100002EC8, symSize: 0x14 }
  - { offset: 0x139D4, size: 0x8, addend: 0x0, symName: __ZNSt3__122__make_exception_guardB8ne180100INS_29_AllocatorDestroyRangeReverseINS_9allocatorINS_12basic_stringIcNS_11char_traitsIcEENS2_IcEEEEEEPS7_EEEENS_28__exception_guard_exceptionsIT_EESC_, symObjAddr: 0x1C04, symBinAddr: 0x100002EDC, symSize: 0x4C }
  - { offset: 0x13A0A, size: 0x8, addend: 0x0, symName: __ZNSt3__112__to_addressB8ne180100INS_12basic_stringIcNS_11char_traitsIcEENS_9allocatorIcEEEEEEPT_S8_, symObjAddr: 0x1CC8, symBinAddr: 0x100002FA0, symSize: 0x14 }
  - { offset: 0x13A3F, size: 0x8, addend: 0x0, symName: __ZNSt3__119__allocator_destroyB8ne180100INS_9allocatorINS_12basic_stringIcNS_11char_traitsIcEENS1_IcEEEEEENS_16reverse_iteratorIPS6_EESA_EEvRT_T0_T1_, symObjAddr: 0x1EA8, symBinAddr: 0x100003180, symSize: 0x70 }
  - { offset: 0x13AA2, size: 0x8, addend: 0x0, symName: __ZNSt3__1neB8ne180100IPNS_12basic_stringIcNS_11char_traitsIcEENS_9allocatorIcEEEES7_EEbRKNS_16reverse_iteratorIT_EERKNS8_IT0_EE, symObjAddr: 0x1F4C, symBinAddr: 0x100003224, symSize: 0x48 }
  - { offset: 0x13AEE, size: 0x8, addend: 0x0, symName: __ZNSt3__112__to_addressB8ne180100INS_16reverse_iteratorIPNS_12basic_stringIcNS_11char_traitsIcEENS_9allocatorIcEEEEEEvEEu7__decayIDTclsr19__to_address_helperIT_EE6__callclsr3stdE7declvalIRKSA_EEEEESC_, symObjAddr: 0x1FC0, symBinAddr: 0x100003298, symSize: 0x24 }
  - { offset: 0x13BA0, size: 0x8, addend: 0x0, symName: __ZNSt3__119__libcpp_deallocateB8ne180100EPvmm, symObjAddr: 0x23E8, symBinAddr: 0x1000036C0, symSize: 0x30 }
  - { offset: 0x13BE8, size: 0x8, addend: 0x0, symName: __ZNSt3__127__do_deallocate_handle_sizeB8ne180100IJEEEvPvmDpT_, symObjAddr: 0x2418, symBinAddr: 0x1000036F0, symSize: 0x28 }
  - { offset: 0x13C26, size: 0x8, addend: 0x0, symName: __ZNSt3__124__libcpp_operator_deleteB8ne180100IJPvEEEvDpT_, symObjAddr: 0x2440, symBinAddr: 0x100003718, symSize: 0x24 }
  - { offset: 0x13C5B, size: 0x8, addend: 0x0, symName: __ZNSt3__116__pad_and_outputB8ne180100IcNS_11char_traitsIcEEEENS_19ostreambuf_iteratorIT_T0_EES6_PKS4_S8_S8_RNS_8ios_baseES4_, symObjAddr: 0x280C, symBinAddr: 0x100003AE4, symSize: 0x240 }
  - { offset: 0x13D2A, size: 0x8, addend: 0x0, symName: __ZNSt3__19use_facetB8ne180100INS_5ctypeIcEEEERKT_RKNS_6localeE, symObjAddr: 0x2D98, symBinAddr: 0x100004070, symSize: 0x2C }
  - { offset: 0x141F7, size: 0x8, addend: 0x0, symName: __ZNSt3__112__to_addressB8ne180100IKcEEPT_S3_, symObjAddr: 0x2E30, symBinAddr: 0x100004108, symSize: 0x14 }
  - { offset: 0x14BAE, size: 0x8, addend: 0x0, symName: __ZNSt3__13maxB8ne180100IlEERKT_S3_S3_, symObjAddr: 0x3DFC, symBinAddr: 0x1000050D4, symSize: 0x2C }
  - { offset: 0x14BFC, size: 0x8, addend: 0x0, symName: __ZNSt3__13maxB8ne180100IlNS_6__lessIvvEEEERKT_S5_S5_T0_, symObjAddr: 0x4378, symBinAddr: 0x100005650, symSize: 0x54 }
  - { offset: 0x15B97, size: 0x8, addend: 0x0, symName: __ZSt28__throw_bad_array_new_lengthB8ne180100v, symObjAddr: 0x1728, symBinAddr: 0x100002A00, symSize: 0x34 }
  - { offset: 0x16EA3, size: 0x8, addend: 0x0, symName: __ZN5Eigen8symbolic10SymbolExprINS_8internal17symbolic_last_tagEEC1Ev, symObjAddr: 0x0, symBinAddr: 0x1000012D8, symSize: 0x2C }
  - { offset: 0x16ECD, size: 0x8, addend: 0x0, symName: __ZNK5Eigen8symbolic8BaseExprINS0_10SymbolExprINS_8internal17symbolic_last_tagEEEEplILi1EEENS0_7AddExprIS5_NS0_9ValueExprINS3_8FixedIntIXT_EEEEEEESB_, symObjAddr: 0x2C, symBinAddr: 0x100001304, symSize: 0x48 }
  - { offset: 0x16F08, size: 0x8, addend: 0x0, symName: __ZNK5Eigen8internal8FixedIntILi1EEclEv, symObjAddr: 0x74, symBinAddr: 0x10000134C, symSize: 0x10 }
  - { offset: 0x16F2E, size: 0x8, addend: 0x0, symName: __ZN5Eigen8internal5all_tC1Ev, symObjAddr: 0x84, symBinAddr: 0x10000135C, symSize: 0x2C }
  - { offset: 0x16F58, size: 0x8, addend: 0x0, symName: _main, symObjAddr: 0xB0, symBinAddr: 0x100001388, symSize: 0x38C }
  - { offset: 0x16FDB, size: 0x8, addend: 0x0, symName: __ZNSt3__112basic_stringIcNS_11char_traitsIcEENS_9allocatorIcEEEC1B8ne180100ILi0EEEPKc, symObjAddr: 0x43C, symBinAddr: 0x100001714, symSize: 0x34 }
  - { offset: 0x1701A, size: 0x8, addend: 0x0, symName: __ZNSt3__16vectorINS_12basic_stringIcNS_11char_traitsIcEENS_9allocatorIcEEEENS4_IS6_EEEC1B8ne180100ESt16initializer_listIS6_E, symObjAddr: 0x470, symBinAddr: 0x100001748, symSize: 0x3C }
  - { offset: 0x17055, size: 0x8, addend: 0x0, symName: __ZNSt3__16vectorINS_12basic_stringIcNS_11char_traitsIcEENS_9allocatorIcEEEENS4_IS6_EEE5beginB8ne180100Ev, symObjAddr: 0x4AC, symBinAddr: 0x100001784, symSize: 0x30 }
  - { offset: 0x1707D, size: 0x8, addend: 0x0, symName: __ZNSt3__16vectorINS_12basic_stringIcNS_11char_traitsIcEENS_9allocatorIcEEEENS4_IS6_EEE3endB8ne180100Ev, symObjAddr: 0x4DC, symBinAddr: 0x1000017B4, symSize: 0x30 }
  - { offset: 0x170A5, size: 0x8, addend: 0x0, symName: __ZNKSt3__111__wrap_iterIPNS_12basic_stringIcNS_11char_traitsIcEENS_9allocatorIcEEEEEdeB8ne180100Ev, symObjAddr: 0x540, symBinAddr: 0x100001818, symSize: 0x18 }
  - { offset: 0x170CB, size: 0x8, addend: 0x0, symName: __ZNSt3__111__wrap_iterIPNS_12basic_stringIcNS_11char_traitsIcEENS_9allocatorIcEEEEEppB8ne180100Ev, symObjAddr: 0x5EC, symBinAddr: 0x1000018C4, symSize: 0x20 }
  - { offset: 0x170F1, size: 0x8, addend: 0x0, symName: __ZNSt3__113basic_ostreamIcNS_11char_traitsIcEEElsB8ne180100EPFRS3_S4_E, symObjAddr: 0x60C, symBinAddr: 0x1000018E4, symSize: 0x2C }
  - { offset: 0x17125, size: 0x8, addend: 0x0, symName: __ZN5Eigen6MatrixIdLi2ELi1ELi0ELi2ELi1EEC1Ev, symObjAddr: 0x690, symBinAddr: 0x100001968, symSize: 0x2C }
  - { offset: 0x1714F, size: 0x8, addend: 0x0, symName: __ZN5Eigen9DenseBaseINS_6MatrixIdLi2ELi1ELi0ELi2ELi1EEEElsERKd, symObjAddr: 0x6BC, symBinAddr: 0x100001994, symSize: 0x40 }
  - { offset: 0x17186, size: 0x8, addend: 0x0, symName: __ZN5Eigen16CommaInitializerINS_6MatrixIdLi2ELi1ELi0ELi2ELi1EEEEcmERKd, symObjAddr: 0x6FC, symBinAddr: 0x1000019D4, symSize: 0x1B8 }
  - { offset: 0x171BA, size: 0x8, addend: 0x0, symName: __ZN5Eigen16CommaInitializerINS_6MatrixIdLi2ELi1ELi0ELi2ELi1EEEED1Ev, symObjAddr: 0x8B4, symBinAddr: 0x100001B8C, symSize: 0x2C }
  - { offset: 0x171E4, size: 0x8, addend: 0x0, symName: __ZN5Eigen9DenseBaseINS_6MatrixIdLi2ELi1ELi0ELi2ELi1EEEE9transposeEv, symObjAddr: 0xAE8, symBinAddr: 0x100001DC0, symSize: 0x34 }
  - { offset: 0x1720C, size: 0x8, addend: 0x0, symName: __ZNSt3__16vectorINS_12basic_stringIcNS_11char_traitsIcEENS_9allocatorIcEEEENS4_IS6_EEED1B8ne180100Ev, symObjAddr: 0xB1C, symBinAddr: 0x100001DF4, symSize: 0x2C }
  - { offset: 0x17236, size: 0x8, addend: 0x0, symName: __ZN5Eigen8internal8FixedIntILi1EEC1Ev, symObjAddr: 0xB48, symBinAddr: 0x100001E20, symSize: 0x2C }
  - { offset: 0x17260, size: 0x8, addend: 0x0, symName: __ZN5Eigen8internal5all_tC2Ev, symObjAddr: 0xB74, symBinAddr: 0x100001E4C, symSize: 0x14 }
  - { offset: 0x1728A, size: 0x8, addend: 0x0, symName: __ZNKSt3__111__wrap_iterIPNS_12basic_stringIcNS_11char_traitsIcEENS_9allocatorIcEEEEE4baseB8ne180100Ev, symObjAddr: 0xBD0, symBinAddr: 0x100001EA8, symSize: 0x18 }
  - { offset: 0x172B0, size: 0x8, addend: 0x0, symName: __ZNSt3__112basic_stringIcNS_11char_traitsIcEENS_9allocatorIcEEEC2B8ne180100ILi0EEEPKc, symObjAddr: 0xBE8, symBinAddr: 0x100001EC0, symSize: 0x58 }
  - { offset: 0x172F5, size: 0x8, addend: 0x0, symName: __ZNSt3__117__compressed_pairINS_12basic_stringIcNS_11char_traitsIcEENS_9allocatorIcEEE5__repES5_EC1B8ne180100INS_18__default_init_tagESA_EEOT_OT0_, symObjAddr: 0xC40, symBinAddr: 0x100001F18, symSize: 0x3C }
  - { offset: 0x1734D, size: 0x8, addend: 0x0, symName: __ZNSt3__111char_traitsIcE6lengthB8ne180100EPKc, symObjAddr: 0xC7C, symBinAddr: 0x100001F54, symSize: 0x34 }
  - { offset: 0x17370, size: 0x8, addend: 0x0, symName: __ZNSt3__117__compressed_pairINS_12basic_stringIcNS_11char_traitsIcEENS_9allocatorIcEEE5__repES5_EC2B8ne180100INS_18__default_init_tagESA_EEOT_OT0_, symObjAddr: 0xCB0, symBinAddr: 0x100001F88, symSize: 0x3C }
  - { offset: 0x173C8, size: 0x8, addend: 0x0, symName: __ZNSt3__122__compressed_pair_elemINS_12basic_stringIcNS_11char_traitsIcEENS_9allocatorIcEEE5__repELi0ELb0EEC2B8ne180100ENS_18__default_init_tagE, symObjAddr: 0xCEC, symBinAddr: 0x100001FC4, symSize: 0x14 }
  - { offset: 0x173FD, size: 0x8, addend: 0x0, symName: __ZNSt3__122__compressed_pair_elemINS_9allocatorIcEELi1ELb1EEC2B8ne180100ENS_18__default_init_tagE, symObjAddr: 0xD00, symBinAddr: 0x100001FD8, symSize: 0x2C }
  - { offset: 0x17432, size: 0x8, addend: 0x0, symName: __ZNSt3__19allocatorIcEC2B8ne180100Ev, symObjAddr: 0xD2C, symBinAddr: 0x100002004, symSize: 0x2C }
  - { offset: 0x1745C, size: 0x8, addend: 0x0, symName: __ZNSt3__116__non_trivial_ifILb1ENS_9allocatorIcEEEC2B8ne180100Ev, symObjAddr: 0xD58, symBinAddr: 0x100002030, symSize: 0x14 }
  - { offset: 0x17486, size: 0x8, addend: 0x0, symName: __ZN5Eigen8symbolic10SymbolExprINS_8internal17symbolic_last_tagEEC2Ev, symObjAddr: 0xDA0, symBinAddr: 0x100002078, symSize: 0x14 }
  - { offset: 0x174B0, size: 0x8, addend: 0x0, symName: __ZN5Eigen8internal8FixedIntILi1EEC2Ev, symObjAddr: 0xDB4, symBinAddr: 0x10000208C, symSize: 0x14 }
  - { offset: 0x174DA, size: 0x8, addend: 0x0, symName: __ZNK5Eigen8symbolic8BaseExprINS0_10SymbolExprINS_8internal17symbolic_last_tagEEEE7derivedEv, symObjAddr: 0xDC8, symBinAddr: 0x1000020A0, symSize: 0x14 }
  - { offset: 0x17500, size: 0x8, addend: 0x0, symName: __ZN5Eigen8symbolic9ValueExprINS_8internal8FixedIntILi1EEEEC1Ev, symObjAddr: 0xDDC, symBinAddr: 0x1000020B4, symSize: 0x2C }
  - { offset: 0x1752A, size: 0x8, addend: 0x0, symName: __ZN5Eigen8symbolic7AddExprINS0_10SymbolExprINS_8internal17symbolic_last_tagEEENS0_9ValueExprINS3_8FixedIntILi1EEEEEEC1ERKS5_RKS9_, symObjAddr: 0xE08, symBinAddr: 0x1000020E0, symSize: 0x3C }
  - { offset: 0x17570, size: 0x8, addend: 0x0, symName: __ZN5Eigen8symbolic9ValueExprINS_8internal8FixedIntILi1EEEEC2Ev, symObjAddr: 0xE44, symBinAddr: 0x10000211C, symSize: 0x14 }
  - { offset: 0x1759A, size: 0x8, addend: 0x0, symName: __ZN5Eigen8symbolic7AddExprINS0_10SymbolExprINS_8internal17symbolic_last_tagEEENS0_9ValueExprINS3_8FixedIntILi1EEEEEEC2ERKS5_RKS9_, symObjAddr: 0xE58, symBinAddr: 0x100002130, symSize: 0x1C }
  - { offset: 0x175E0, size: 0x8, addend: 0x0, symName: __ZNSt3__16vectorINS_12basic_stringIcNS_11char_traitsIcEENS_9allocatorIcEEEENS4_IS6_EEEC2B8ne180100ESt16initializer_listIS6_E, symObjAddr: 0xE74, symBinAddr: 0x10000214C, symSize: 0x120 }
  - { offset: 0x1763C, size: 0x8, addend: 0x0, symName: __ZNSt3__117__compressed_pairIPNS_12basic_stringIcNS_11char_traitsIcEENS_9allocatorIcEEEENS4_IS6_EEEC1B8ne180100IDnNS_18__default_init_tagEEEOT_OT0_, symObjAddr: 0xF94, symBinAddr: 0x10000226C, symSize: 0x3C }
  - { offset: 0x17694, size: 0x8, addend: 0x0, symName: __ZNSt3__16vectorINS_12basic_stringIcNS_11char_traitsIcEENS_9allocatorIcEEEENS4_IS6_EEE16__destroy_vectorC1B8ne180100ERS8_, symObjAddr: 0x1010, symBinAddr: 0x1000022E8, symSize: 0x34 }
  - { offset: 0x176CD, size: 0x8, addend: 0x0, symName: __ZNKSt16initializer_listINSt3__112basic_stringIcNS0_11char_traitsIcEENS0_9allocatorIcEEEEE4sizeB8ne180100Ev, symObjAddr: 0x1044, symBinAddr: 0x10000231C, symSize: 0x18 }
  - { offset: 0x176F3, size: 0x8, addend: 0x0, symName: __ZNSt3__16vectorINS_12basic_stringIcNS_11char_traitsIcEENS_9allocatorIcEEEENS4_IS6_EEE11__vallocateB8ne180100Em, symObjAddr: 0x105C, symBinAddr: 0x100002334, symSize: 0xB4 }
  - { offset: 0x17737, size: 0x8, addend: 0x0, symName: __ZNSt3__16vectorINS_12basic_stringIcNS_11char_traitsIcEENS_9allocatorIcEEEENS4_IS6_EEE18__construct_at_endIPKS6_SB_EEvT_T0_m, symObjAddr: 0x1110, symBinAddr: 0x1000023E8, symSize: 0x8C }
  - { offset: 0x177AD, size: 0x8, addend: 0x0, symName: __ZNKSt16initializer_listINSt3__112basic_stringIcNS0_11char_traitsIcEENS0_9allocatorIcEEEEE5beginB8ne180100Ev, symObjAddr: 0x119C, symBinAddr: 0x100002474, symSize: 0x18 }
  - { offset: 0x177D3, size: 0x8, addend: 0x0, symName: __ZNKSt16initializer_listINSt3__112basic_stringIcNS0_11char_traitsIcEENS0_9allocatorIcEEEEE3endB8ne180100Ev, symObjAddr: 0x11B4, symBinAddr: 0x10000248C, symSize: 0x28 }
  - { offset: 0x177F9, size: 0x8, addend: 0x0, symName: __ZNSt3__128__exception_guard_exceptionsINS_6vectorINS_12basic_stringIcNS_11char_traitsIcEENS_9allocatorIcEEEENS5_IS7_EEE16__destroy_vectorEE10__completeB8ne180100Ev, symObjAddr: 0x11DC, symBinAddr: 0x1000024B4, symSize: 0x1C }
  - { offset: 0x1781F, size: 0x8, addend: 0x0, symName: __ZNSt3__128__exception_guard_exceptionsINS_6vectorINS_12basic_stringIcNS_11char_traitsIcEENS_9allocatorIcEEEENS5_IS7_EEE16__destroy_vectorEED1B8ne180100Ev, symObjAddr: 0x11F8, symBinAddr: 0x1000024D0, symSize: 0x2C }
  - { offset: 0x17849, size: 0x8, addend: 0x0, symName: __ZNSt3__117__compressed_pairIPNS_12basic_stringIcNS_11char_traitsIcEENS_9allocatorIcEEEENS4_IS6_EEEC2B8ne180100IDnNS_18__default_init_tagEEEOT_OT0_, symObjAddr: 0x1224, symBinAddr: 0x1000024FC, symSize: 0x40 }
  - { offset: 0x178A1, size: 0x8, addend: 0x0, symName: __ZNSt3__122__compressed_pair_elemIPNS_12basic_stringIcNS_11char_traitsIcEENS_9allocatorIcEEEELi0ELb0EEC2B8ne180100IDnvEEOT_, symObjAddr: 0x1264, symBinAddr: 0x10000253C, symSize: 0x1C }
  - { offset: 0x178E3, size: 0x8, addend: 0x0, symName: __ZNSt3__122__compressed_pair_elemINS_9allocatorINS_12basic_stringIcNS_11char_traitsIcEENS1_IcEEEEEELi1ELb1EEC2B8ne180100ENS_18__default_init_tagE, symObjAddr: 0x1280, symBinAddr: 0x100002558, symSize: 0x2C }
  - { offset: 0x17918, size: 0x8, addend: 0x0, symName: __ZNSt3__19allocatorINS_12basic_stringIcNS_11char_traitsIcEENS0_IcEEEEEC2B8ne180100Ev, symObjAddr: 0x12AC, symBinAddr: 0x100002584, symSize: 0x2C }
  - { offset: 0x17942, size: 0x8, addend: 0x0, symName: __ZNSt3__116__non_trivial_ifILb1ENS_9allocatorINS_12basic_stringIcNS_11char_traitsIcEENS1_IcEEEEEEEC2B8ne180100Ev, symObjAddr: 0x12D8, symBinAddr: 0x1000025B0, symSize: 0x14 }
  - { offset: 0x1796C, size: 0x8, addend: 0x0, symName: __ZNSt3__128__exception_guard_exceptionsINS_6vectorINS_12basic_stringIcNS_11char_traitsIcEENS_9allocatorIcEEEENS5_IS7_EEE16__destroy_vectorEEC1B8ne180100ESA_, symObjAddr: 0x12EC, symBinAddr: 0x1000025C4, symSize: 0x34 }
  - { offset: 0x179A4, size: 0x8, addend: 0x0, symName: __ZNSt3__128__exception_guard_exceptionsINS_6vectorINS_12basic_stringIcNS_11char_traitsIcEENS_9allocatorIcEEEENS5_IS7_EEE16__destroy_vectorEEC2B8ne180100ESA_, symObjAddr: 0x1320, symBinAddr: 0x1000025F8, symSize: 0x24 }
  - { offset: 0x179DC, size: 0x8, addend: 0x0, symName: __ZNSt3__16vectorINS_12basic_stringIcNS_11char_traitsIcEENS_9allocatorIcEEEENS4_IS6_EEE16__destroy_vectorC2B8ne180100ERS8_, symObjAddr: 0x1344, symBinAddr: 0x10000261C, symSize: 0x20 }
  - { offset: 0x17A15, size: 0x8, addend: 0x0, symName: __ZNKSt3__16vectorINS_12basic_stringIcNS_11char_traitsIcEENS_9allocatorIcEEEENS4_IS6_EEE8max_sizeEv, symObjAddr: 0x1364, symBinAddr: 0x10000263C, symSize: 0x60 }
  - { offset: 0x17A3D, size: 0x8, addend: 0x0, symName: __ZNKSt3__16vectorINS_12basic_stringIcNS_11char_traitsIcEENS_9allocatorIcEEEENS4_IS6_EEE20__throw_length_errorB8ne180100Ev, symObjAddr: 0x13C4, symBinAddr: 0x10000269C, symSize: 0x1C }
  - { offset: 0x17A63, size: 0x8, addend: 0x0, symName: __ZNSt3__16vectorINS_12basic_stringIcNS_11char_traitsIcEENS_9allocatorIcEEEENS4_IS6_EEE7__allocB8ne180100Ev, symObjAddr: 0x1420, symBinAddr: 0x1000026F8, symSize: 0x28 }
  - { offset: 0x17A89, size: 0x8, addend: 0x0, symName: __ZNSt3__16vectorINS_12basic_stringIcNS_11char_traitsIcEENS_9allocatorIcEEEENS4_IS6_EEE9__end_capB8ne180100Ev, symObjAddr: 0x1448, symBinAddr: 0x100002720, symSize: 0x28 }
  - { offset: 0x17AAF, size: 0x8, addend: 0x0, symName: __ZNKSt3__16vectorINS_12basic_stringIcNS_11char_traitsIcEENS_9allocatorIcEEEENS4_IS6_EEE14__annotate_newB8ne180100Em, symObjAddr: 0x1470, symBinAddr: 0x100002748, symSize: 0x14 }
  - { offset: 0x17AEE, size: 0x8, addend: 0x0, symName: __ZNSt3__116allocator_traitsINS_9allocatorINS_12basic_stringIcNS_11char_traitsIcEENS1_IcEEEEEEE8max_sizeB8ne180100IS7_vEEmRKS7_, symObjAddr: 0x14B0, symBinAddr: 0x100002788, symSize: 0x24 }
  - { offset: 0x17B1C, size: 0x8, addend: 0x0, symName: __ZNKSt3__16vectorINS_12basic_stringIcNS_11char_traitsIcEENS_9allocatorIcEEEENS4_IS6_EEE7__allocB8ne180100Ev, symObjAddr: 0x14D4, symBinAddr: 0x1000027AC, symSize: 0x28 }
  - { offset: 0x17B42, size: 0x8, addend: 0x0, symName: __ZNSt3__114numeric_limitsIlE3maxB8ne180100Ev, symObjAddr: 0x14FC, symBinAddr: 0x1000027D4, symSize: 0x14 }
  - { offset: 0x17B6A, size: 0x8, addend: 0x0, symName: __ZNKSt3__16__lessIvvEclB8ne180100ImmEEbRKT_RKT0_, symObjAddr: 0x1564, symBinAddr: 0x10000283C, symSize: 0x34 }
  - { offset: 0x17BBE, size: 0x8, addend: 0x0, symName: __ZNKSt3__19allocatorINS_12basic_stringIcNS_11char_traitsIcEENS0_IcEEEEE8max_sizeB8ne180100Ev, symObjAddr: 0x1598, symBinAddr: 0x100002870, symSize: 0x18 }
  - { offset: 0x17BE4, size: 0x8, addend: 0x0, symName: __ZNKSt3__117__compressed_pairIPNS_12basic_stringIcNS_11char_traitsIcEENS_9allocatorIcEEEENS4_IS6_EEE6secondB8ne180100Ev, symObjAddr: 0x15B0, symBinAddr: 0x100002888, symSize: 0x24 }
  - { offset: 0x17C0A, size: 0x8, addend: 0x0, symName: __ZNKSt3__122__compressed_pair_elemINS_9allocatorINS_12basic_stringIcNS_11char_traitsIcEENS1_IcEEEEEELi1ELb1EE5__getB8ne180100Ev, symObjAddr: 0x15D4, symBinAddr: 0x1000028AC, symSize: 0x14 }
  - { offset: 0x17C30, size: 0x8, addend: 0x0, symName: __ZNSt3__123__libcpp_numeric_limitsIlLb1EE3maxB8ne180100Ev, symObjAddr: 0x15E8, symBinAddr: 0x1000028C0, symSize: 0x8 }
  - { offset: 0x17C44, size: 0x8, addend: 0x0, symName: __ZNSt12length_errorC1B8ne180100EPKc, symObjAddr: 0x1654, symBinAddr: 0x10000292C, symSize: 0x34 }
  - { offset: 0x17C7C, size: 0x8, addend: 0x0, symName: __ZNSt12length_errorC2B8ne180100EPKc, symObjAddr: 0x1688, symBinAddr: 0x100002960, symSize: 0x44 }
  - { offset: 0x17CB4, size: 0x8, addend: 0x0, symName: __ZNSt3__19allocatorINS_12basic_stringIcNS_11char_traitsIcEENS0_IcEEEEE8allocateB8ne180100Em, symObjAddr: 0x16CC, symBinAddr: 0x1000029A4, symSize: 0x5C }
  - { offset: 0x17CE8, size: 0x8, addend: 0x0, symName: __ZNSt3__117__compressed_pairIPNS_12basic_stringIcNS_11char_traitsIcEENS_9allocatorIcEEEENS4_IS6_EEE6secondB8ne180100Ev, symObjAddr: 0x17A8, symBinAddr: 0x100002A80, symSize: 0x24 }
  - { offset: 0x17D0E, size: 0x8, addend: 0x0, symName: __ZNSt3__122__compressed_pair_elemINS_9allocatorINS_12basic_stringIcNS_11char_traitsIcEENS1_IcEEEEEELi1ELb1EE5__getB8ne180100Ev, symObjAddr: 0x17CC, symBinAddr: 0x100002AA4, symSize: 0x14 }
  - { offset: 0x17D34, size: 0x8, addend: 0x0, symName: __ZNSt3__117__compressed_pairIPNS_12basic_stringIcNS_11char_traitsIcEENS_9allocatorIcEEEENS4_IS6_EEE5firstB8ne180100Ev, symObjAddr: 0x17E0, symBinAddr: 0x100002AB8, symSize: 0x24 }
  - { offset: 0x17D5A, size: 0x8, addend: 0x0, symName: __ZNSt3__122__compressed_pair_elemIPNS_12basic_stringIcNS_11char_traitsIcEENS_9allocatorIcEEEELi0ELb0EE5__getB8ne180100Ev, symObjAddr: 0x1804, symBinAddr: 0x100002ADC, symSize: 0x14 }
  - { offset: 0x17D99, size: 0x8, addend: 0x0, symName: __ZNSt3__16vectorINS_12basic_stringIcNS_11char_traitsIcEENS_9allocatorIcEEEENS4_IS6_EEE21_ConstructTransactionC1B8ne180100ERS8_m, symObjAddr: 0x1818, symBinAddr: 0x100002AF0, symSize: 0x3C }
  - { offset: 0x17DE1, size: 0x8, addend: 0x0, symName: __ZNSt3__16vectorINS_12basic_stringIcNS_11char_traitsIcEENS_9allocatorIcEEEENS4_IS6_EEE21_ConstructTransactionD1B8ne180100Ev, symObjAddr: 0x18D4, symBinAddr: 0x100002BAC, symSize: 0x2C }
  - { offset: 0x17E0B, size: 0x8, addend: 0x0, symName: __ZNSt3__16vectorINS_12basic_stringIcNS_11char_traitsIcEENS_9allocatorIcEEEENS4_IS6_EEE21_ConstructTransactionC2B8ne180100ERS8_m, symObjAddr: 0x1900, symBinAddr: 0x100002BD8, symSize: 0x4C }
  - { offset: 0x17E73, size: 0x8, addend: 0x0, symName: __ZNSt3__14pairIPKNS_12basic_stringIcNS_11char_traitsIcEENS_9allocatorIcEEEES8_EC1B8ne180100IS8_S8_Li0EEEOT_OT0_, symObjAddr: 0x1B5C, symBinAddr: 0x100002E34, symSize: 0x3C }
  - { offset: 0x17ED1, size: 0x8, addend: 0x0, symName: __ZNSt3__14pairIPKNS_12basic_stringIcNS_11char_traitsIcEENS_9allocatorIcEEEES8_EC2B8ne180100IS8_S8_Li0EEEOT_OT0_, symObjAddr: 0x1B98, symBinAddr: 0x100002E70, symSize: 0x34 }
  - { offset: 0x17F2F, size: 0x8, addend: 0x0, symName: __ZNSt3__118__unwrap_iter_implIPKNS_12basic_stringIcNS_11char_traitsIcEENS_9allocatorIcEEEELb1EE8__unwrapB8ne180100ES8_, symObjAddr: 0x1BCC, symBinAddr: 0x100002EA4, symSize: 0x24 }
  - { offset: 0x17F52, size: 0x8, addend: 0x0, symName: __ZNSt3__129_AllocatorDestroyRangeReverseINS_9allocatorINS_12basic_stringIcNS_11char_traitsIcEENS1_IcEEEEEEPS6_EC1B8ne180100ERS7_RS8_SB_, symObjAddr: 0x1C50, symBinAddr: 0x100002F28, symSize: 0x44 }
  - { offset: 0x17FA9, size: 0x8, addend: 0x0, symName: __ZNSt3__116allocator_traitsINS_9allocatorINS_12basic_stringIcNS_11char_traitsIcEENS1_IcEEEEEEE9constructB8ne180100IS6_JRKS6_EvEEvRS7_PT_DpOT0_, symObjAddr: 0x1C94, symBinAddr: 0x100002F6C, symSize: 0x34 }
  - { offset: 0x18000, size: 0x8, addend: 0x0, symName: __ZNSt3__128__exception_guard_exceptionsINS_29_AllocatorDestroyRangeReverseINS_9allocatorINS_12basic_stringIcNS_11char_traitsIcEENS2_IcEEEEEEPS7_EEE10__completeB8ne180100Ev, symObjAddr: 0x1CDC, symBinAddr: 0x100002FB4, symSize: 0x1C }
  - { offset: 0x18026, size: 0x8, addend: 0x0, symName: __ZNSt3__128__exception_guard_exceptionsINS_29_AllocatorDestroyRangeReverseINS_9allocatorINS_12basic_stringIcNS_11char_traitsIcEENS2_IcEEEEEEPS7_EEED1B8ne180100Ev, symObjAddr: 0x1CF8, symBinAddr: 0x100002FD0, symSize: 0x2C }
  - { offset: 0x18050, size: 0x8, addend: 0x0, symName: __ZNSt3__128__exception_guard_exceptionsINS_29_AllocatorDestroyRangeReverseINS_9allocatorINS_12basic_stringIcNS_11char_traitsIcEENS2_IcEEEEEEPS7_EEEC1B8ne180100ESA_, symObjAddr: 0x1D24, symBinAddr: 0x100002FFC, symSize: 0x34 }
  - { offset: 0x18089, size: 0x8, addend: 0x0, symName: __ZNSt3__128__exception_guard_exceptionsINS_29_AllocatorDestroyRangeReverseINS_9allocatorINS_12basic_stringIcNS_11char_traitsIcEENS2_IcEEEEEEPS7_EEEC2B8ne180100ESA_, symObjAddr: 0x1D58, symBinAddr: 0x100003030, symSize: 0x30 }
  - { offset: 0x180C2, size: 0x8, addend: 0x0, symName: __ZNSt3__129_AllocatorDestroyRangeReverseINS_9allocatorINS_12basic_stringIcNS_11char_traitsIcEENS1_IcEEEEEEPS6_EC2B8ne180100ERS7_RS8_SB_, symObjAddr: 0x1D88, symBinAddr: 0x100003060, symSize: 0x38 }
  - { offset: 0x18119, size: 0x8, addend: 0x0, symName: __ZNSt3__19allocatorINS_12basic_stringIcNS_11char_traitsIcEENS0_IcEEEEE9constructB8ne180100IS5_JRKS5_EEEvPT_DpOT0_, symObjAddr: 0x1DC0, symBinAddr: 0x100003098, symSize: 0x30 }
  - { offset: 0x1816F, size: 0x8, addend: 0x0, symName: __ZNSt3__128__exception_guard_exceptionsINS_29_AllocatorDestroyRangeReverseINS_9allocatorINS_12basic_stringIcNS_11char_traitsIcEENS2_IcEEEEEEPS7_EEED2B8ne180100Ev, symObjAddr: 0x1DF0, symBinAddr: 0x1000030C8, symSize: 0x50 }
  - { offset: 0x18199, size: 0x8, addend: 0x0, symName: __ZNKSt3__129_AllocatorDestroyRangeReverseINS_9allocatorINS_12basic_stringIcNS_11char_traitsIcEENS1_IcEEEEEEPS6_EclB8ne180100Ev, symObjAddr: 0x1E40, symBinAddr: 0x100003118, symSize: 0x68 }
  - { offset: 0x181BF, size: 0x8, addend: 0x0, symName: __ZNSt3__116reverse_iteratorIPNS_12basic_stringIcNS_11char_traitsIcEENS_9allocatorIcEEEEEC1B8ne180100ES7_, symObjAddr: 0x1F18, symBinAddr: 0x1000031F0, symSize: 0x34 }
  - { offset: 0x181F7, size: 0x8, addend: 0x0, symName: __ZNSt3__116allocator_traitsINS_9allocatorINS_12basic_stringIcNS_11char_traitsIcEENS1_IcEEEEEEE7destroyB8ne180100IS6_vEEvRS7_PT_, symObjAddr: 0x1F94, symBinAddr: 0x10000326C, symSize: 0x2C }
  - { offset: 0x18234, size: 0x8, addend: 0x0, symName: __ZNSt3__116reverse_iteratorIPNS_12basic_stringIcNS_11char_traitsIcEENS_9allocatorIcEEEEEppB8ne180100Ev, symObjAddr: 0x1FE4, symBinAddr: 0x1000032BC, symSize: 0x20 }
  - { offset: 0x1825A, size: 0x8, addend: 0x0, symName: __ZNKSt3__116reverse_iteratorIPNS_12basic_stringIcNS_11char_traitsIcEENS_9allocatorIcEEEEE4baseB8ne180100Ev, symObjAddr: 0x2004, symBinAddr: 0x1000032DC, symSize: 0x18 }
  - { offset: 0x18280, size: 0x8, addend: 0x0, symName: __ZNSt3__19allocatorINS_12basic_stringIcNS_11char_traitsIcEENS0_IcEEEEE7destroyB8ne180100EPS5_, symObjAddr: 0x201C, symBinAddr: 0x1000032F4, symSize: 0x28 }
  - { offset: 0x182B9, size: 0x8, addend: 0x0, symName: __ZNSt3__119__to_address_helperINS_16reverse_iteratorIPNS_12basic_stringIcNS_11char_traitsIcEENS_9allocatorIcEEEEEEvE6__callB8ne180100ERKS9_, symObjAddr: 0x2044, symBinAddr: 0x10000331C, symSize: 0x38 }
  - { offset: 0x182DC, size: 0x8, addend: 0x0, symName: __ZNKSt3__116reverse_iteratorIPNS_12basic_stringIcNS_11char_traitsIcEENS_9allocatorIcEEEEEptB8ne180100Ev, symObjAddr: 0x207C, symBinAddr: 0x100003354, symSize: 0x24 }
  - { offset: 0x18302, size: 0x8, addend: 0x0, symName: __ZNKSt3__116reverse_iteratorIPNS_12basic_stringIcNS_11char_traitsIcEENS_9allocatorIcEEEEEdeB8ne180100Ev, symObjAddr: 0x20A0, symBinAddr: 0x100003378, symSize: 0x28 }
  - { offset: 0x18336, size: 0x8, addend: 0x0, symName: __ZNSt3__116reverse_iteratorIPNS_12basic_stringIcNS_11char_traitsIcEENS_9allocatorIcEEEEEC2B8ne180100ES7_, symObjAddr: 0x20C8, symBinAddr: 0x1000033A0, symSize: 0x28 }
  - { offset: 0x1836E, size: 0x8, addend: 0x0, symName: __ZNSt3__118__unwrap_iter_implIPNS_12basic_stringIcNS_11char_traitsIcEENS_9allocatorIcEEEELb1EE8__unwrapB8ne180100ES7_, symObjAddr: 0x20F0, symBinAddr: 0x1000033C8, symSize: 0x24 }
  - { offset: 0x18391, size: 0x8, addend: 0x0, symName: __ZNSt3__118__unwrap_iter_implIPNS_12basic_stringIcNS_11char_traitsIcEENS_9allocatorIcEEEELb1EE8__rewrapB8ne180100ES7_S7_, symObjAddr: 0x2114, symBinAddr: 0x1000033EC, symSize: 0x58 }
  - { offset: 0x183C2, size: 0x8, addend: 0x0, symName: __ZNSt3__16vectorINS_12basic_stringIcNS_11char_traitsIcEENS_9allocatorIcEEEENS4_IS6_EEE21_ConstructTransactionD2B8ne180100Ev, symObjAddr: 0x216C, symBinAddr: 0x100003444, symSize: 0x20 }
  - { offset: 0x183EC, size: 0x8, addend: 0x0, symName: __ZNSt3__128__exception_guard_exceptionsINS_6vectorINS_12basic_stringIcNS_11char_traitsIcEENS_9allocatorIcEEEENS5_IS7_EEE16__destroy_vectorEED2B8ne180100Ev, symObjAddr: 0x218C, symBinAddr: 0x100003464, symSize: 0x50 }
  - { offset: 0x18416, size: 0x8, addend: 0x0, symName: __ZNSt3__16vectorINS_12basic_stringIcNS_11char_traitsIcEENS_9allocatorIcEEEENS4_IS6_EEE16__destroy_vectorclB8ne180100Ev, symObjAddr: 0x21DC, symBinAddr: 0x1000034B4, symSize: 0x90 }
  - { offset: 0x1843C, size: 0x8, addend: 0x0, symName: __ZNSt3__16vectorINS_12basic_stringIcNS_11char_traitsIcEENS_9allocatorIcEEEENS4_IS6_EEE7__clearB8ne180100Ev, symObjAddr: 0x226C, symBinAddr: 0x100003544, symSize: 0x28 }
  - { offset: 0x18462, size: 0x8, addend: 0x0, symName: __ZNKSt3__16vectorINS_12basic_stringIcNS_11char_traitsIcEENS_9allocatorIcEEEENS4_IS6_EEE17__annotate_deleteB8ne180100Ev, symObjAddr: 0x2294, symBinAddr: 0x10000356C, symSize: 0x10 }
  - { offset: 0x18488, size: 0x8, addend: 0x0, symName: __ZNSt3__116allocator_traitsINS_9allocatorINS_12basic_stringIcNS_11char_traitsIcEENS1_IcEEEEEEE10deallocateB8ne180100ERS7_PS6_m, symObjAddr: 0x22A4, symBinAddr: 0x10000357C, symSize: 0x34 }
  - { offset: 0x184CA, size: 0x8, addend: 0x0, symName: __ZNKSt3__16vectorINS_12basic_stringIcNS_11char_traitsIcEENS_9allocatorIcEEEENS4_IS6_EEE8capacityB8ne180100Ev, symObjAddr: 0x22D8, symBinAddr: 0x1000035B0, symSize: 0x40 }
  - { offset: 0x184F0, size: 0x8, addend: 0x0, symName: __ZNSt3__16vectorINS_12basic_stringIcNS_11char_traitsIcEENS_9allocatorIcEEEENS4_IS6_EEE22__base_destruct_at_endB8ne180100EPS6_, symObjAddr: 0x2318, symBinAddr: 0x1000035F0, symSize: 0x8C }
  - { offset: 0x18534, size: 0x8, addend: 0x0, symName: __ZNSt3__19allocatorINS_12basic_stringIcNS_11char_traitsIcEENS0_IcEEEEE10deallocateB8ne180100EPS5_m, symObjAddr: 0x23A4, symBinAddr: 0x10000367C, symSize: 0x44 }
  - { offset: 0x18576, size: 0x8, addend: 0x0, symName: __ZNKSt3__16vectorINS_12basic_stringIcNS_11char_traitsIcEENS_9allocatorIcEEEENS4_IS6_EEE9__end_capB8ne180100Ev, symObjAddr: 0x2464, symBinAddr: 0x10000373C, symSize: 0x28 }
  - { offset: 0x1859C, size: 0x8, addend: 0x0, symName: __ZNKSt3__117__compressed_pairIPNS_12basic_stringIcNS_11char_traitsIcEENS_9allocatorIcEEEENS4_IS6_EEE5firstB8ne180100Ev, symObjAddr: 0x248C, symBinAddr: 0x100003764, symSize: 0x24 }
  - { offset: 0x185C2, size: 0x8, addend: 0x0, symName: __ZNKSt3__122__compressed_pair_elemIPNS_12basic_stringIcNS_11char_traitsIcEENS_9allocatorIcEEEELi0ELb0EE5__getB8ne180100Ev, symObjAddr: 0x24B0, symBinAddr: 0x100003788, symSize: 0x14 }
  - { offset: 0x185E8, size: 0x8, addend: 0x0, symName: __ZNSt3__16vectorINS_12basic_stringIcNS_11char_traitsIcEENS_9allocatorIcEEEENS4_IS6_EEED2B8ne180100Ev, symObjAddr: 0x24C4, symBinAddr: 0x10000379C, symSize: 0x40 }
  - { offset: 0x18612, size: 0x8, addend: 0x0, symName: __ZNSt3__16vectorINS_12basic_stringIcNS_11char_traitsIcEENS_9allocatorIcEEEENS4_IS6_EEE11__make_iterB8ne180100EPS6_, symObjAddr: 0x2504, symBinAddr: 0x1000037DC, symSize: 0x30 }
  - { offset: 0x18647, size: 0x8, addend: 0x0, symName: __ZNSt3__111__wrap_iterIPNS_12basic_stringIcNS_11char_traitsIcEENS_9allocatorIcEEEEEC1B8ne180100ES7_, symObjAddr: 0x2534, symBinAddr: 0x10000380C, symSize: 0x34 }
  - { offset: 0x1867F, size: 0x8, addend: 0x0, symName: __ZNSt3__111__wrap_iterIPNS_12basic_stringIcNS_11char_traitsIcEENS_9allocatorIcEEEEEC2B8ne180100ES7_, symObjAddr: 0x2568, symBinAddr: 0x100003840, symSize: 0x20 }
  - { offset: 0x186B7, size: 0x8, addend: 0x0, symName: __ZNKSt3__112basic_stringIcNS_11char_traitsIcEENS_9allocatorIcEEE4dataB8ne180100Ev, symObjAddr: 0x2774, symBinAddr: 0x100003A4C, symSize: 0x28 }
  - { offset: 0x186DD, size: 0x8, addend: 0x0, symName: __ZNKSt3__112basic_stringIcNS_11char_traitsIcEENS_9allocatorIcEEE4sizeB8ne180100Ev, symObjAddr: 0x279C, symBinAddr: 0x100003A74, symSize: 0x54 }
  - { offset: 0x18721, size: 0x8, addend: 0x0, symName: __ZNKSt3__113basic_ostreamIcNS_11char_traitsIcEEE6sentrycvbB8ne180100Ev, symObjAddr: 0x27F0, symBinAddr: 0x100003AC8, symSize: 0x1C }
  - { offset: 0x18747, size: 0x8, addend: 0x0, symName: __ZNSt3__119ostreambuf_iteratorIcNS_11char_traitsIcEEEC1B8ne180100ERNS_13basic_ostreamIcS2_EE, symObjAddr: 0x2A4C, symBinAddr: 0x100003D24, symSize: 0x34 }
  - { offset: 0x1877F, size: 0x8, addend: 0x0, symName: __ZNKSt3__18ios_base5flagsB8ne180100Ev, symObjAddr: 0x2A80, symBinAddr: 0x100003D58, symSize: 0x18 }
  - { offset: 0x187A7, size: 0x8, addend: 0x0, symName: __ZNKSt3__19basic_iosIcNS_11char_traitsIcEEE4fillB8ne180100Ev, symObjAddr: 0x2A98, symBinAddr: 0x100003D70, symSize: 0x64 }
  - { offset: 0x187CF, size: 0x8, addend: 0x0, symName: __ZNKSt3__119ostreambuf_iteratorIcNS_11char_traitsIcEEE6failedB8ne180100Ev, symObjAddr: 0x2AFC, symBinAddr: 0x100003DD4, symSize: 0x24 }
  - { offset: 0x187F5, size: 0x8, addend: 0x0, symName: __ZNSt3__19basic_iosIcNS_11char_traitsIcEEE8setstateB8ne180100Ej, symObjAddr: 0x2B20, symBinAddr: 0x100003DF8, symSize: 0x2C }
  - { offset: 0x1882A, size: 0x8, addend: 0x0, symName: __ZNKSt3__18ios_base5widthB8ne180100Ev, symObjAddr: 0x2B4C, symBinAddr: 0x100003E24, symSize: 0x18 }
  - { offset: 0x18852, size: 0x8, addend: 0x0, symName: __ZNSt3__115basic_streambufIcNS_11char_traitsIcEEE5sputnB8ne180100EPKcl, symObjAddr: 0x2B64, symBinAddr: 0x100003E3C, symSize: 0x3C }
  - { offset: 0x18894, size: 0x8, addend: 0x0, symName: __ZNSt3__112basic_stringIcNS_11char_traitsIcEENS_9allocatorIcEEEC1B8ne180100Emc, symObjAddr: 0x2BA0, symBinAddr: 0x100003E78, symSize: 0x3C }
  - { offset: 0x188DC, size: 0x8, addend: 0x0, symName: __ZNSt3__18ios_base5widthB8ne180100El, symObjAddr: 0x2BDC, symBinAddr: 0x100003EB4, symSize: 0x2C }
  - { offset: 0x18922, size: 0x8, addend: 0x0, symName: __ZNSt3__112basic_stringIcNS_11char_traitsIcEENS_9allocatorIcEEEC2B8ne180100Emc, symObjAddr: 0x2C08, symBinAddr: 0x100003EE0, symSize: 0x4C }
  - { offset: 0x1896A, size: 0x8, addend: 0x0, symName: __ZNSt3__119ostreambuf_iteratorIcNS_11char_traitsIcEEEC2B8ne180100ERNS_13basic_ostreamIcS2_EE, symObjAddr: 0x2C54, symBinAddr: 0x100003F2C, symSize: 0x54 }
  - { offset: 0x189A2, size: 0x8, addend: 0x0, symName: __ZNKSt3__19basic_iosIcNS_11char_traitsIcEEE5rdbufB8ne180100Ev, symObjAddr: 0x2CA8, symBinAddr: 0x100003F80, symSize: 0x24 }
  - { offset: 0x189CA, size: 0x8, addend: 0x0, symName: __ZNKSt3__18ios_base5rdbufB8ne180100Ev, symObjAddr: 0x2CCC, symBinAddr: 0x100003FA4, symSize: 0x18 }
  - { offset: 0x189F0, size: 0x8, addend: 0x0, symName: __ZNSt3__111char_traitsIcE11eq_int_typeB8ne180100Eii, symObjAddr: 0x2CE4, symBinAddr: 0x100003FBC, symSize: 0x28 }
  - { offset: 0x18A23, size: 0x8, addend: 0x0, symName: __ZNSt3__111char_traitsIcE3eofB8ne180100Ev, symObjAddr: 0x2D0C, symBinAddr: 0x100003FE4, symSize: 0x8 }
  - { offset: 0x18A37, size: 0x8, addend: 0x0, symName: __ZNKSt3__19basic_iosIcNS_11char_traitsIcEEE5widenB8ne180100Ec, symObjAddr: 0x2D14, symBinAddr: 0x100003FEC, symSize: 0x84 }
  - { offset: 0x18AB0, size: 0x8, addend: 0x0, symName: __ZNKSt3__15ctypeIcE5widenB8ne180100Ec, symObjAddr: 0x2DC4, symBinAddr: 0x10000409C, symSize: 0x38 }
  - { offset: 0x18AE5, size: 0x8, addend: 0x0, symName: __ZNSt3__18ios_base8setstateB8ne180100Ej, symObjAddr: 0x2DFC, symBinAddr: 0x1000040D4, symSize: 0x34 }
  - { offset: 0x18B1C, size: 0x8, addend: 0x0, symName: __ZNKSt3__112basic_stringIcNS_11char_traitsIcEENS_9allocatorIcEEE13__get_pointerB8ne180100Ev, symObjAddr: 0x2E44, symBinAddr: 0x10000411C, symSize: 0x54 }
  - { offset: 0x18B42, size: 0x8, addend: 0x0, symName: __ZNKSt3__112basic_stringIcNS_11char_traitsIcEENS_9allocatorIcEEE9__is_longB8ne180100Ev, symObjAddr: 0x2E98, symBinAddr: 0x100004170, symSize: 0x38 }
  - { offset: 0x18B68, size: 0x8, addend: 0x0, symName: __ZNKSt3__112basic_stringIcNS_11char_traitsIcEENS_9allocatorIcEEE18__get_long_pointerB8ne180100Ev, symObjAddr: 0x2ED0, symBinAddr: 0x1000041A8, symSize: 0x28 }
  - { offset: 0x18B8E, size: 0x8, addend: 0x0, symName: __ZNKSt3__112basic_stringIcNS_11char_traitsIcEENS_9allocatorIcEEE19__get_short_pointerB8ne180100Ev, symObjAddr: 0x2EF8, symBinAddr: 0x1000041D0, symSize: 0x28 }
  - { offset: 0x18BB4, size: 0x8, addend: 0x0, symName: __ZNKSt3__117__compressed_pairINS_12basic_stringIcNS_11char_traitsIcEENS_9allocatorIcEEE5__repES5_E5firstB8ne180100Ev, symObjAddr: 0x2F20, symBinAddr: 0x1000041F8, symSize: 0x24 }
  - { offset: 0x18BDA, size: 0x8, addend: 0x0, symName: __ZNKSt3__122__compressed_pair_elemINS_12basic_stringIcNS_11char_traitsIcEENS_9allocatorIcEEE5__repELi0ELb0EE5__getB8ne180100Ev, symObjAddr: 0x2F44, symBinAddr: 0x10000421C, symSize: 0x14 }
  - { offset: 0x18C00, size: 0x8, addend: 0x0, symName: __ZNSt3__114pointer_traitsIPKcE10pointer_toB8ne180100ERS1_, symObjAddr: 0x2F58, symBinAddr: 0x100004230, symSize: 0x14 }
  - { offset: 0x18C23, size: 0x8, addend: 0x0, symName: __ZNKSt3__112basic_stringIcNS_11char_traitsIcEENS_9allocatorIcEEE15__get_long_sizeB8ne180100Ev, symObjAddr: 0x2F6C, symBinAddr: 0x100004244, symSize: 0x28 }
  - { offset: 0x18C49, size: 0x8, addend: 0x0, symName: __ZNKSt3__112basic_stringIcNS_11char_traitsIcEENS_9allocatorIcEEE16__get_short_sizeB8ne180100Ev, symObjAddr: 0x2F94, symBinAddr: 0x10000426C, symSize: 0x34 }
  - { offset: 0x18C6F, size: 0x8, addend: 0x0, symName: __ZN5Eigen6MatrixIdLi2ELi1ELi0ELi2ELi1EEC2Ev, symObjAddr: 0x2FC8, symBinAddr: 0x1000042A0, symSize: 0x30 }
  - { offset: 0x18C99, size: 0x8, addend: 0x0, symName: __ZN5Eigen15PlainObjectBaseINS_6MatrixIdLi2ELi1ELi0ELi2ELi1EEEEC2Ev, symObjAddr: 0x2FF8, symBinAddr: 0x1000042D0, symSize: 0x34 }
  - { offset: 0x18CC3, size: 0x8, addend: 0x0, symName: __ZN5Eigen15PlainObjectBaseINS_6MatrixIdLi2ELi1ELi0ELi2ELi1EEEE22_check_template_paramsEv, symObjAddr: 0x302C, symBinAddr: 0x100004304, symSize: 0x4 }
  - { offset: 0x18CD7, size: 0x8, addend: 0x0, symName: __ZN5Eigen10MatrixBaseINS_6MatrixIdLi2ELi1ELi0ELi2ELi1EEEEC2Ev, symObjAddr: 0x3030, symBinAddr: 0x100004308, symSize: 0x2C }
  - { offset: 0x18D01, size: 0x8, addend: 0x0, symName: __ZN5Eigen12DenseStorageIdLi2ELi2ELi1ELi0EEC1Ev, symObjAddr: 0x305C, symBinAddr: 0x100004334, symSize: 0x2C }
  - { offset: 0x18D2B, size: 0x8, addend: 0x0, symName: __ZN5Eigen9DenseBaseINS_6MatrixIdLi2ELi1ELi0ELi2ELi1EEEEC2Ev, symObjAddr: 0x3088, symBinAddr: 0x100004360, symSize: 0x14 }
  - { offset: 0x18D55, size: 0x8, addend: 0x0, symName: __ZN5Eigen12DenseStorageIdLi2ELi2ELi1ELi0EEC2Ev, symObjAddr: 0x309C, symBinAddr: 0x100004374, symSize: 0x2C }
  - { offset: 0x18D7F, size: 0x8, addend: 0x0, symName: __ZN5Eigen8internal11plain_arrayIdLi2ELi0ELi16EEC1Ev, symObjAddr: 0x30C8, symBinAddr: 0x1000043A0, symSize: 0x2C }
  - { offset: 0x18DA9, size: 0x8, addend: 0x0, symName: __ZN5Eigen8internal11plain_arrayIdLi2ELi0ELi16EEC2Ev, symObjAddr: 0x30F4, symBinAddr: 0x1000043CC, symSize: 0x80 }
  - { offset: 0x18DD3, size: 0x8, addend: 0x0, symName: __ZN5Eigen16CommaInitializerINS_6MatrixIdLi2ELi1ELi0ELi2ELi1EEEEC1ERS2_RKd, symObjAddr: 0x3178, symBinAddr: 0x100004450, symSize: 0x3C }
  - { offset: 0x18E19, size: 0x8, addend: 0x0, symName: __ZN5Eigen16CommaInitializerINS_6MatrixIdLi2ELi1ELi0ELi2ELi1EEEEC2ERS2_RKd, symObjAddr: 0x31B4, symBinAddr: 0x10000448C, symSize: 0xF8 }
  - { offset: 0x18E5F, size: 0x8, addend: 0x0, symName: __ZNK5Eigen15PlainObjectBaseINS_6MatrixIdLi2ELi1ELi0ELi2ELi1EEEE4rowsEv, symObjAddr: 0x32AC, symBinAddr: 0x100004584, symSize: 0x20 }
  - { offset: 0x18E85, size: 0x8, addend: 0x0, symName: __ZNK5Eigen15PlainObjectBaseINS_6MatrixIdLi2ELi1ELi0ELi2ELi1EEEE4colsEv, symObjAddr: 0x32CC, symBinAddr: 0x1000045A4, symSize: 0x20 }
  - { offset: 0x18EAB, size: 0x8, addend: 0x0, symName: __ZN5Eigen15PlainObjectBaseINS_6MatrixIdLi2ELi1ELi0ELi2ELi1EEEE8coeffRefEll, symObjAddr: 0x32EC, symBinAddr: 0x1000045C4, symSize: 0x60 }
  - { offset: 0x18EED, size: 0x8, addend: 0x0, symName: __ZN5Eigen12DenseStorageIdLi2ELi2ELi1ELi0EE4rowsEv, symObjAddr: 0x334C, symBinAddr: 0x100004624, symSize: 0x8 }
  - { offset: 0x18F01, size: 0x8, addend: 0x0, symName: __ZN5Eigen12DenseStorageIdLi2ELi2ELi1ELi0EE4colsEv, symObjAddr: 0x3354, symBinAddr: 0x10000462C, symSize: 0x8 }
  - { offset: 0x18F15, size: 0x8, addend: 0x0, symName: __ZN5Eigen12DenseStorageIdLi2ELi2ELi1ELi0EE4dataEv, symObjAddr: 0x335C, symBinAddr: 0x100004634, symSize: 0x14 }
  - { offset: 0x18F3B, size: 0x8, addend: 0x0, symName: __ZN5Eigen16CommaInitializerINS_6MatrixIdLi2ELi1ELi0ELi2ELi1EEEED2Ev, symObjAddr: 0x3370, symBinAddr: 0x100004648, symSize: 0x34 }
  - { offset: 0x18F65, size: 0x8, addend: 0x0, symName: __ZN5Eigen16CommaInitializerINS_6MatrixIdLi2ELi1ELi0ELi2ELi1EEEE8finishedEv, symObjAddr: 0x33A4, symBinAddr: 0x10000467C, symSize: 0xE8 }
  - { offset: 0x18F8B, size: 0x8, addend: 0x0, symName: __ZN5Eigen9EigenBaseINS_6MatrixIdLi2ELi1ELi0ELi2ELi1EEEE7derivedEv, symObjAddr: 0x348C, symBinAddr: 0x100004764, symSize: 0x14 }
  - { offset: 0x18FB1, size: 0x8, addend: 0x0, symName: __ZN5Eigen9TransposeINS_6MatrixIdLi2ELi1ELi0ELi2ELi1EEEEC1ERS2_, symObjAddr: 0x34A0, symBinAddr: 0x100004778, symSize: 0x34 }
  - { offset: 0x18FE9, size: 0x8, addend: 0x0, symName: __ZN5Eigen9TransposeINS_6MatrixIdLi2ELi1ELi0ELi2ELi1EEEEC2ERS2_, symObjAddr: 0x34D4, symBinAddr: 0x1000047AC, symSize: 0x38 }
  - { offset: 0x19021, size: 0x8, addend: 0x0, symName: __ZN5Eigen13TransposeImplINS_6MatrixIdLi2ELi1ELi0ELi2ELi1EEENS_5DenseEEC2Ev, symObjAddr: 0x350C, symBinAddr: 0x1000047E4, symSize: 0x2C }
  - { offset: 0x1904B, size: 0x8, addend: 0x0, symName: __ZN5Eigen10MatrixBaseINS_9TransposeINS_6MatrixIdLi2ELi1ELi0ELi2ELi1EEEEEEC2Ev, symObjAddr: 0x3538, symBinAddr: 0x100004810, symSize: 0x2C }
  - { offset: 0x19075, size: 0x8, addend: 0x0, symName: __ZN5Eigen9DenseBaseINS_9TransposeINS_6MatrixIdLi2ELi1ELi0ELi2ELi1EEEEEEC2Ev, symObjAddr: 0x3564, symBinAddr: 0x10000483C, symSize: 0x14 }
  - { offset: 0x1909F, size: 0x8, addend: 0x0, symName: __ZNK5Eigen9DenseBaseINS_9TransposeINS_6MatrixIdLi2ELi1ELi0ELi2ELi1EEEEEE4evalEv, symObjAddr: 0x3AF8, symBinAddr: 0x100004DD0, symSize: 0x38 }
  - { offset: 0x190C5, size: 0x8, addend: 0x0, symName: __ZN5Eigen8IOFormatC1EiiRKNSt3__112basic_stringIcNS1_11char_traitsIcEENS1_9allocatorIcEEEES9_S9_S9_S9_S9_c, symObjAddr: 0x3B30, symBinAddr: 0x100004E08, symSize: 0x88 }
  - { offset: 0x1916D, size: 0x8, addend: 0x0, symName: __ZN5Eigen8IOFormatD1Ev, symObjAddr: 0x3BB8, symBinAddr: 0x100004E90, symSize: 0x2C }
  - { offset: 0x19199, size: 0x8, addend: 0x0, symName: __ZNK5Eigen9EigenBaseINS_6MatrixIdLi1ELi2ELi1ELi1ELi2EEEE4sizeEv, symObjAddr: 0x3BE4, symBinAddr: 0x100004EBC, symSize: 0x44 }
  - { offset: 0x191BF, size: 0x8, addend: 0x0, symName: __ZN5Eigen8internal25significant_decimals_implIdE3runEv, symObjAddr: 0x3C28, symBinAddr: 0x100004F00, symSize: 0x14 }
  - { offset: 0x191D3, size: 0x8, addend: 0x0, symName: __ZNSt3__18ios_base9precisionB8ne180100El, symObjAddr: 0x3C3C, symBinAddr: 0x100004F14, symSize: 0x2C }
  - { offset: 0x19219, size: 0x8, addend: 0x0, symName: __ZNK5Eigen15PlainObjectBaseINS_6MatrixIdLi1ELi2ELi1ELi1ELi2EEEE4colsEv, symObjAddr: 0x3C68, symBinAddr: 0x100004F40, symSize: 0x20 }
  - { offset: 0x1923F, size: 0x8, addend: 0x0, symName: __ZNK5Eigen15PlainObjectBaseINS_6MatrixIdLi1ELi2ELi1ELi1ELi2EEEE4rowsEv, symObjAddr: 0x3C88, symBinAddr: 0x100004F60, symSize: 0x20 }
  - { offset: 0x19333, size: 0x8, addend: 0x0, symName: __ZNSt3__118basic_stringstreamIcNS_11char_traitsIcEENS_9allocatorIcEEEC1B8ne180100Ev, symObjAddr: 0x3CA8, symBinAddr: 0x100004F80, symSize: 0xF4 }
  - { offset: 0x1935D, size: 0x8, addend: 0x0, symName: __ZNK5Eigen15PlainObjectBaseINS_6MatrixIdLi1ELi2ELi1ELi1ELi2EEEE5coeffEll, symObjAddr: 0x3D9C, symBinAddr: 0x100005074, symSize: 0x60 }
  - { offset: 0x1939F, size: 0x8, addend: 0x0, symName: __ZNKSt3__118basic_stringstreamIcNS_11char_traitsIcEENS_9allocatorIcEEE3strB8ne180100Ev, symObjAddr: 0x3E28, symBinAddr: 0x100005100, symSize: 0x30 }
  - { offset: 0x193C5, size: 0x8, addend: 0x0, symName: __ZNKSt3__112basic_stringIcNS_11char_traitsIcEENS_9allocatorIcEEE6lengthB8ne180100Ev, symObjAddr: 0x3E58, symBinAddr: 0x100005130, symSize: 0x24 }
  - { offset: 0x193F0, size: 0x8, addend: 0x0, symName: __ZNSt3__118basic_stringstreamIcNS_11char_traitsIcEENS_9allocatorIcEEED1Ev, symObjAddr: 0x3E7C, symBinAddr: 0x100005154, symSize: 0x40 }
  - { offset: 0x1941D, size: 0x8, addend: 0x0, symName: __ZNSt3__19basic_iosIcNS_11char_traitsIcEEE4fillB8ne180100Ec, symObjAddr: 0x3EBC, symBinAddr: 0x100005194, symSize: 0x74 }
  - { offset: 0x19463, size: 0x8, addend: 0x0, symName: __ZNK5Eigen9EigenBaseINS_6MatrixIdLi1ELi2ELi1ELi1ELi2EEEE4rowsEv, symObjAddr: 0x3F30, symBinAddr: 0x100005208, symSize: 0x38 }
  - { offset: 0x19489, size: 0x8, addend: 0x0, symName: __ZNK5Eigen9EigenBaseINS_6MatrixIdLi1ELi2ELi1ELi1ELi2EEEE4colsEv, symObjAddr: 0x3F68, symBinAddr: 0x100005240, symSize: 0x28 }
  - { offset: 0x194AF, size: 0x8, addend: 0x0, symName: __ZNK5Eigen9EigenBaseINS_6MatrixIdLi1ELi2ELi1ELi1ELi2EEEE7derivedEv, symObjAddr: 0x3F90, symBinAddr: 0x100005268, symSize: 0x14 }
  - { offset: 0x194D5, size: 0x8, addend: 0x0, symName: __ZN5Eigen16GenericNumTraitsIdE8digits10Ev, symObjAddr: 0x3FA4, symBinAddr: 0x10000527C, symSize: 0x14 }
  - { offset: 0x194E9, size: 0x8, addend: 0x0, symName: __ZN5Eigen8internal21default_digits10_implIdLb1ELb0EE3runEv, symObjAddr: 0x3FB8, symBinAddr: 0x100005290, symSize: 0x8 }
  - { offset: 0x194FD, size: 0x8, addend: 0x0, symName: __ZN5Eigen12DenseStorageIdLi2ELi1ELi2ELi1EE4colsEv, symObjAddr: 0x3FC0, symBinAddr: 0x100005298, symSize: 0x8 }
  - { offset: 0x19511, size: 0x8, addend: 0x0, symName: __ZN5Eigen12DenseStorageIdLi2ELi1ELi2ELi1EE4rowsEv, symObjAddr: 0x3FC8, symBinAddr: 0x1000052A0, symSize: 0x8 }
  - { offset: 0x19525, size: 0x8, addend: 0x0, symName: __ZNSt3__19basic_iosIcNS_11char_traitsIcEEEC2B8ne180100Ev, symObjAddr: 0x3FD0, symBinAddr: 0x1000052A8, symSize: 0x3C }
  - { offset: 0x1954F, size: 0x8, addend: 0x0, symName: __ZNSt3__114basic_iostreamIcNS_11char_traitsIcEEEC2B8ne180100EPNS_15basic_streambufIcS2_EE, symObjAddr: 0x400C, symBinAddr: 0x1000052E4, symSize: 0xAC }
  - { offset: 0x19595, size: 0x8, addend: 0x0, symName: __ZNSt3__115basic_stringbufIcNS_11char_traitsIcEENS_9allocatorIcEEEC1B8ne180100Ej, symObjAddr: 0x40B8, symBinAddr: 0x100005390, symSize: 0x34 }
  - { offset: 0x195CE, size: 0x8, addend: 0x0, symName: __ZNSt3__18ios_baseC2B8ne180100Ev, symObjAddr: 0x40EC, symBinAddr: 0x1000053C4, symSize: 0x24 }
  - { offset: 0x195F8, size: 0x8, addend: 0x0, symName: __ZNSt3__113basic_istreamIcNS_11char_traitsIcEEEC2B8ne180100EPNS_15basic_streambufIcS2_EE, symObjAddr: 0x4110, symBinAddr: 0x1000053E8, symSize: 0x64 }
  - { offset: 0x1963D, size: 0x8, addend: 0x0, symName: __ZNSt3__113basic_ostreamIcNS_11char_traitsIcEEEC2B8ne180100Ev, symObjAddr: 0x4174, symBinAddr: 0x10000544C, symSize: 0x34 }
  - { offset: 0x19674, size: 0x8, addend: 0x0, symName: __ZNSt3__19basic_iosIcNS_11char_traitsIcEEE4initB8ne180100EPNS_15basic_streambufIcS2_EE, symObjAddr: 0x41A8, symBinAddr: 0x100005480, symSize: 0x44 }
  - { offset: 0x196AB, size: 0x8, addend: 0x0, symName: __ZNSt3__115basic_stringbufIcNS_11char_traitsIcEENS_9allocatorIcEEEC2B8ne180100Ej, symObjAddr: 0x41EC, symBinAddr: 0x1000054C4, symSize: 0x58 }
  - { offset: 0x196E4, size: 0x8, addend: 0x0, symName: __ZNSt3__112basic_stringIcNS_11char_traitsIcEENS_9allocatorIcEEEC1B8ne180100Ev, symObjAddr: 0x4244, symBinAddr: 0x10000551C, symSize: 0x2C }
  - { offset: 0x1970E, size: 0x8, addend: 0x0, symName: __ZNSt3__112basic_stringIcNS_11char_traitsIcEENS_9allocatorIcEEEC2B8ne180100Ev, symObjAddr: 0x4270, symBinAddr: 0x100005548, symSize: 0x48 }
  - { offset: 0x1973E, size: 0x8, addend: 0x0, symName: __ZNSt3__117__compressed_pairINS_12basic_stringIcNS_11char_traitsIcEENS_9allocatorIcEEE5__repES5_EC1B8ne180100INS_16__value_init_tagENS_18__default_init_tagEEEOT_OT0_, symObjAddr: 0x42B8, symBinAddr: 0x100005590, symSize: 0x3C }
  - { offset: 0x19796, size: 0x8, addend: 0x0, symName: __ZNKSt3__112basic_stringIcNS_11char_traitsIcEENS_9allocatorIcEEE14__annotate_newB8ne180100Em, symObjAddr: 0x42F4, symBinAddr: 0x1000055CC, symSize: 0x14 }
  - { offset: 0x197CB, size: 0x8, addend: 0x0, symName: __ZNSt3__117__compressed_pairINS_12basic_stringIcNS_11char_traitsIcEENS_9allocatorIcEEE5__repES5_EC2B8ne180100INS_16__value_init_tagENS_18__default_init_tagEEEOT_OT0_, symObjAddr: 0x4308, symBinAddr: 0x1000055E0, symSize: 0x3C }
  - { offset: 0x19823, size: 0x8, addend: 0x0, symName: __ZNSt3__122__compressed_pair_elemINS_12basic_stringIcNS_11char_traitsIcEENS_9allocatorIcEEE5__repELi0ELb0EEC2B8ne180100ENS_16__value_init_tagE, symObjAddr: 0x4344, symBinAddr: 0x10000561C, symSize: 0x20 }
  - { offset: 0x19858, size: 0x8, addend: 0x0, symName: __ZNK5Eigen12DenseStorageIdLi2ELi1ELi2ELi1EE4dataEv, symObjAddr: 0x4364, symBinAddr: 0x10000563C, symSize: 0x14 }
  - { offset: 0x19888, size: 0x8, addend: 0x0, symName: __ZNKSt3__16__lessIvvEclB8ne180100IllEEbRKT_RKT0_, symObjAddr: 0x43CC, symBinAddr: 0x1000056A4, symSize: 0x34 }
  - { offset: 0x198DC, size: 0x8, addend: 0x0, symName: __ZNSt3__118basic_stringstreamIcNS_11char_traitsIcEENS_9allocatorIcEEED2Ev, symObjAddr: 0x4400, symBinAddr: 0x1000056D8, symSize: 0x6C }
  - { offset: 0x19916, size: 0x8, addend: 0x0, symName: __ZThn16_NSt3__118basic_stringstreamIcNS_11char_traitsIcEENS_9allocatorIcEEED1Ev, symObjAddr: 0x446C, symBinAddr: 0x100005744, symSize: 0x1C }
  - { offset: 0x1992D, size: 0x8, addend: 0x0, symName: __ZTv0_n24_NSt3__118basic_stringstreamIcNS_11char_traitsIcEENS_9allocatorIcEEED1Ev, symObjAddr: 0x4488, symBinAddr: 0x100005760, symSize: 0x28 }
  - { offset: 0x19949, size: 0x8, addend: 0x0, symName: __ZNSt3__115basic_stringbufIcNS_11char_traitsIcEENS_9allocatorIcEEED1Ev, symObjAddr: 0x44B0, symBinAddr: 0x100005788, symSize: 0x2C }
  - { offset: 0x19976, size: 0x8, addend: 0x0, symName: __ZNSt3__115basic_stringbufIcNS_11char_traitsIcEENS_9allocatorIcEEED2Ev, symObjAddr: 0x44DC, symBinAddr: 0x1000057B4, symSize: 0x48 }
  - { offset: 0x199A3, size: 0x8, addend: 0x0, symName: __ZNK5Eigen9EigenBaseINS_9TransposeINS_6MatrixIdLi2ELi1ELi0ELi2ELi1EEEEEE7derivedEv, symObjAddr: 0x4524, symBinAddr: 0x1000057FC, symSize: 0x14 }
  - { offset: 0x199C9, size: 0x8, addend: 0x0, symName: __ZN5Eigen6MatrixIdLi1ELi2ELi1ELi1ELi2EEC1INS_9TransposeINS0_IdLi2ELi1ELi0ELi2ELi1EEEEEEERKT_, symObjAddr: 0x4538, symBinAddr: 0x100005810, symSize: 0x34 }
  - { offset: 0x19A0B, size: 0x8, addend: 0x0, symName: __ZN5Eigen6MatrixIdLi1ELi2ELi1ELi1ELi2EEC2INS_9TransposeINS0_IdLi2ELi1ELi0ELi2ELi1EEEEEEERKT_, symObjAddr: 0x456C, symBinAddr: 0x100005844, symSize: 0x40 }
  - { offset: 0x19A4D, size: 0x8, addend: 0x0, symName: __ZN5Eigen15PlainObjectBaseINS_6MatrixIdLi1ELi2ELi1ELi1ELi2EEEEC2Ev, symObjAddr: 0x45AC, symBinAddr: 0x100005884, symSize: 0x34 }
  - { offset: 0x19A77, size: 0x8, addend: 0x0, symName: __ZN5Eigen15PlainObjectBaseINS_6MatrixIdLi1ELi2ELi1ELi1ELi2EEEE22_check_template_paramsEv, symObjAddr: 0x45E0, symBinAddr: 0x1000058B8, symSize: 0x4 }
  - { offset: 0x19A8B, size: 0x8, addend: 0x0, symName: __ZN5Eigen15PlainObjectBaseINS_6MatrixIdLi1ELi2ELi1ELi1ELi2EEEE6_init1INS_9TransposeINS1_IdLi2ELi1ELi0ELi2ELi1EEEEES7_EEvRKNS_9DenseBaseIT0_EE, symObjAddr: 0x45E4, symBinAddr: 0x1000058BC, symSize: 0x2C }
  - { offset: 0x19AD2, size: 0x8, addend: 0x0, symName: __ZN5Eigen10MatrixBaseINS_6MatrixIdLi1ELi2ELi1ELi1ELi2EEEEC2Ev, symObjAddr: 0x4610, symBinAddr: 0x1000058E8, symSize: 0x2C }
  - { offset: 0x19AFC, size: 0x8, addend: 0x0, symName: __ZN5Eigen12DenseStorageIdLi2ELi1ELi2ELi1EEC1Ev, symObjAddr: 0x463C, symBinAddr: 0x100005914, symSize: 0x2C }
  - { offset: 0x19B26, size: 0x8, addend: 0x0, symName: __ZN5Eigen9DenseBaseINS_6MatrixIdLi1ELi2ELi1ELi1ELi2EEEEC2Ev, symObjAddr: 0x4668, symBinAddr: 0x100005940, symSize: 0x14 }
  - { offset: 0x19B50, size: 0x8, addend: 0x0, symName: __ZN5Eigen12DenseStorageIdLi2ELi1ELi2ELi1EEC2Ev, symObjAddr: 0x467C, symBinAddr: 0x100005954, symSize: 0x2C }
  - { offset: 0x19B7A, size: 0x8, addend: 0x0, symName: __ZN5Eigen8internal11plain_arrayIdLi2ELi1ELi16EEC1Ev, symObjAddr: 0x46A8, symBinAddr: 0x100005980, symSize: 0x2C }
  - { offset: 0x19BA4, size: 0x8, addend: 0x0, symName: __ZN5Eigen8internal11plain_arrayIdLi2ELi1ELi16EEC2Ev, symObjAddr: 0x46D4, symBinAddr: 0x1000059AC, symSize: 0x80 }
  - { offset: 0x19BCE, size: 0x8, addend: 0x0, symName: __ZN5Eigen15PlainObjectBaseINS_6MatrixIdLi1ELi2ELi1ELi1ELi2EEEE12_set_noaliasINS_9TransposeINS1_IdLi2ELi1ELi0ELi2ELi1EEEEEEERS2_RKNS_9DenseBaseIT_EE, symObjAddr: 0x4754, symBinAddr: 0x100005A2C, symSize: 0x60 }
  - { offset: 0x19C0C, size: 0x8, addend: 0x0, symName: __ZN5Eigen9EigenBaseINS_6MatrixIdLi1ELi2ELi1ELi1ELi2EEEE7derivedEv, symObjAddr: 0x47F0, symBinAddr: 0x100005AC8, symSize: 0x14 }
  - { offset: 0x19C32, size: 0x8, addend: 0x0, symName: __ZN5Eigen8internal9assign_opIddEC1Ev, symObjAddr: 0x4804, symBinAddr: 0x100005ADC, symSize: 0x2C }
  - { offset: 0x19C5C, size: 0x8, addend: 0x0, symName: __ZN5Eigen8internal10AssignmentINS_6MatrixIdLi1ELi2ELi1ELi1ELi2EEENS_9TransposeINS2_IdLi2ELi1ELi0ELi2ELi1EEEEENS0_9assign_opIddEENS0_11Dense2DenseEvE3runERS3_RKS6_RKS8_, symObjAddr: 0x4830, symBinAddr: 0x100005B08, symSize: 0x40 }
  - { offset: 0x19C9E, size: 0x8, addend: 0x0, symName: __ZN5Eigen8internal9evaluatorINS_9TransposeINS_6MatrixIdLi2ELi1ELi0ELi2ELi1EEEEEEC1ERKS5_, symObjAddr: 0x4964, symBinAddr: 0x100005C3C, symSize: 0x34 }
  - { offset: 0x19CD6, size: 0x8, addend: 0x0, symName: __ZN5Eigen8internal9evaluatorINS_6MatrixIdLi1ELi2ELi1ELi1ELi2EEEEC1ERKS3_, symObjAddr: 0x4A90, symBinAddr: 0x100005D68, symSize: 0x34 }
  - { offset: 0x19D0F, size: 0x8, addend: 0x0, symName: __ZNK5Eigen9EigenBaseINS_6MatrixIdLi1ELi2ELi1ELi1ELi2EEEE18const_cast_derivedEv, symObjAddr: 0x4AC4, symBinAddr: 0x100005D9C, symSize: 0x14 }
  - { offset: 0x19D35, size: 0x8, addend: 0x0, symName: __ZN5Eigen8internal31generic_dense_assignment_kernelINS0_9evaluatorINS_6MatrixIdLi1ELi2ELi1ELi1ELi2EEEEENS2_INS_9TransposeINS3_IdLi2ELi1ELi0ELi2ELi1EEEEEEENS0_9assign_opIddEELi0EEC1ERS5_RKS9_RKSB_RS4_, symObjAddr: 0x4AD8, symBinAddr: 0x100005DB0, symSize: 0x4C }
  - { offset: 0x19D9B, size: 0x8, addend: 0x0, symName: __ZN5Eigen8internal21dense_assignment_loopINS0_31generic_dense_assignment_kernelINS0_9evaluatorINS_6MatrixIdLi1ELi2ELi1ELi1ELi2EEEEENS3_INS_9TransposeINS4_IdLi2ELi1ELi0ELi2ELi1EEEEEEENS0_9assign_opIddEELi0EEELi2ELi2EE3runERSD_, symObjAddr: 0x4B24, symBinAddr: 0x100005DFC, symSize: 0x24 }
  - { offset: 0x19DBF, size: 0x8, addend: 0x0, symName: __ZN5Eigen8internal9evaluatorINS_6MatrixIdLi1ELi2ELi1ELi1ELi2EEEED1Ev, symObjAddr: 0x4B48, symBinAddr: 0x100005E20, symSize: 0x2C }
  - { offset: 0x19DEC, size: 0x8, addend: 0x0, symName: __ZN5Eigen8internal9evaluatorINS_9TransposeINS_6MatrixIdLi2ELi1ELi0ELi2ELi1EEEEEED1Ev, symObjAddr: 0x4B74, symBinAddr: 0x100005E4C, symSize: 0x2C }
  - { offset: 0x19E18, size: 0x8, addend: 0x0, symName: __ZN5Eigen8internal9evaluatorINS_9TransposeINS_6MatrixIdLi2ELi1ELi0ELi2ELi1EEEEEEC2ERKS5_, symObjAddr: 0x4BA0, symBinAddr: 0x100005E78, symSize: 0x34 }
  - { offset: 0x19E50, size: 0x8, addend: 0x0, symName: __ZN5Eigen8internal15unary_evaluatorINS_9TransposeINS_6MatrixIdLi2ELi1ELi0ELi2ELi1EEEEENS0_10IndexBasedEdEC2ERKS5_, symObjAddr: 0x4BD4, symBinAddr: 0x100005EAC, symSize: 0x74 }
  - { offset: 0x19E89, size: 0x8, addend: 0x0, symName: __ZN5Eigen8internal14evaluator_baseINS_9TransposeINS_6MatrixIdLi2ELi1ELi0ELi2ELi1EEEEEEC2Ev, symObjAddr: 0x4C48, symBinAddr: 0x100005F20, symSize: 0x14 }
  - { offset: 0x19EB3, size: 0x8, addend: 0x0, symName: __ZNK5Eigen9TransposeINS_6MatrixIdLi2ELi1ELi0ELi2ELi1EEEE16nestedExpressionEv, symObjAddr: 0x4C5C, symBinAddr: 0x100005F34, symSize: 0x18 }
  - { offset: 0x19ED9, size: 0x8, addend: 0x0, symName: __ZN5Eigen8internal9evaluatorINS_6MatrixIdLi2ELi1ELi0ELi2ELi1EEEEC1ERKS3_, symObjAddr: 0x4C74, symBinAddr: 0x100005F4C, symSize: 0x34 }
  - { offset: 0x19F12, size: 0x8, addend: 0x0, symName: __ZN5Eigen8internal14evaluator_baseINS_9TransposeINS_6MatrixIdLi2ELi1ELi0ELi2ELi1EEEEEED2Ev, symObjAddr: 0x4CA8, symBinAddr: 0x100005F80, symSize: 0x14 }
  - { offset: 0x19F3C, size: 0x8, addend: 0x0, symName: __ZN5Eigen8internal9evaluatorINS_6MatrixIdLi2ELi1ELi0ELi2ELi1EEEEC2ERKS3_, symObjAddr: 0x4CBC, symBinAddr: 0x100005F94, symSize: 0x34 }
  - { offset: 0x19F75, size: 0x8, addend: 0x0, symName: __ZN5Eigen8internal9evaluatorINS_15PlainObjectBaseINS_6MatrixIdLi2ELi1ELi0ELi2ELi1EEEEEEC2ERKS5_, symObjAddr: 0x4CF0, symBinAddr: 0x100005FC8, symSize: 0x78 }
  - { offset: 0x19FAD, size: 0x8, addend: 0x0, symName: __ZN5Eigen8internal14evaluator_baseINS_6MatrixIdLi2ELi1ELi0ELi2ELi1EEEEC2Ev, symObjAddr: 0x4D68, symBinAddr: 0x100006040, symSize: 0x14 }
  - { offset: 0x19FD7, size: 0x8, addend: 0x0, symName: __ZNK5Eigen15PlainObjectBaseINS_6MatrixIdLi2ELi1ELi0ELi2ELi1EEEE4dataEv, symObjAddr: 0x4D7C, symBinAddr: 0x100006054, symSize: 0x24 }
  - { offset: 0x19FFD, size: 0x8, addend: 0x0, symName: __ZN5Eigen8internal30plainobjectbase_evaluator_dataIdLi0EEC1EPKdl, symObjAddr: 0x4DA0, symBinAddr: 0x100006078, symSize: 0x3C }
  - { offset: 0x1A043, size: 0x8, addend: 0x0, symName: __ZN5Eigen8internal14evaluator_baseINS_6MatrixIdLi2ELi1ELi0ELi2ELi1EEEED2Ev, symObjAddr: 0x4DDC, symBinAddr: 0x1000060B4, symSize: 0x14 }
  - { offset: 0x1A06D, size: 0x8, addend: 0x0, symName: __ZNK5Eigen12DenseStorageIdLi2ELi2ELi1ELi0EE4dataEv, symObjAddr: 0x4DF0, symBinAddr: 0x1000060C8, symSize: 0x14 }
  - { offset: 0x1A093, size: 0x8, addend: 0x0, symName: __ZN5Eigen8internal30plainobjectbase_evaluator_dataIdLi0EEC2EPKdl, symObjAddr: 0x4E04, symBinAddr: 0x1000060DC, symSize: 0x40 }
  - { offset: 0x1A0D9, size: 0x8, addend: 0x0, symName: __ZNK5Eigen9TransposeINS_6MatrixIdLi2ELi1ELi0ELi2ELi1EEEE4rowsEv, symObjAddr: 0x4E54, symBinAddr: 0x10000612C, symSize: 0x28 }
  - { offset: 0x1A0FF, size: 0x8, addend: 0x0, symName: __ZNK5Eigen9TransposeINS_6MatrixIdLi2ELi1ELi0ELi2ELi1EEEE4colsEv, symObjAddr: 0x4E7C, symBinAddr: 0x100006154, symSize: 0x28 }
  - { offset: 0x1A125, size: 0x8, addend: 0x0, symName: __ZN5Eigen15PlainObjectBaseINS_6MatrixIdLi1ELi2ELi1ELi1ELi2EEEE6resizeEll, symObjAddr: 0x4EA4, symBinAddr: 0x10000617C, symSize: 0x104 }
  - { offset: 0x1A169, size: 0x8, addend: 0x0, symName: __ZN5Eigen12DenseStorageIdLi2ELi1ELi2ELi1EE6resizeElll, symObjAddr: 0x4FA8, symBinAddr: 0x100006280, symSize: 0x1C }
  - { offset: 0x1A1B0, size: 0x8, addend: 0x0, symName: __ZN5Eigen8internal9evaluatorINS_6MatrixIdLi1ELi2ELi1ELi1ELi2EEEEC2ERKS3_, symObjAddr: 0x4FC4, symBinAddr: 0x10000629C, symSize: 0x34 }
  - { offset: 0x1A1E9, size: 0x8, addend: 0x0, symName: __ZN5Eigen8internal9evaluatorINS_15PlainObjectBaseINS_6MatrixIdLi1ELi2ELi1ELi1ELi2EEEEEEC2ERKS5_, symObjAddr: 0x4FF8, symBinAddr: 0x1000062D0, symSize: 0x78 }
  - { offset: 0x1A221, size: 0x8, addend: 0x0, symName: __ZN5Eigen8internal14evaluator_baseINS_6MatrixIdLi1ELi2ELi1ELi1ELi2EEEEC2Ev, symObjAddr: 0x5070, symBinAddr: 0x100006348, symSize: 0x14 }
  - { offset: 0x1A24B, size: 0x8, addend: 0x0, symName: __ZNK5Eigen15PlainObjectBaseINS_6MatrixIdLi1ELi2ELi1ELi1ELi2EEEE4dataEv, symObjAddr: 0x5084, symBinAddr: 0x10000635C, symSize: 0x24 }
  - { offset: 0x1A271, size: 0x8, addend: 0x0, symName: __ZN5Eigen8internal14evaluator_baseINS_6MatrixIdLi1ELi2ELi1ELi1ELi2EEEED2Ev, symObjAddr: 0x50A8, symBinAddr: 0x100006380, symSize: 0x14 }
  - { offset: 0x1A29B, size: 0x8, addend: 0x0, symName: __ZN5Eigen8internal31generic_dense_assignment_kernelINS0_9evaluatorINS_6MatrixIdLi1ELi2ELi1ELi1ELi2EEEEENS2_INS_9TransposeINS3_IdLi2ELi1ELi0ELi2ELi1EEEEEEENS0_9assign_opIddEELi0EEC2ERS5_RKS9_RKSB_RS4_, symObjAddr: 0x50BC, symBinAddr: 0x100006394, symSize: 0x44 }
  - { offset: 0x1A301, size: 0x8, addend: 0x0, symName: __ZN5Eigen8internal47copy_using_evaluator_innervec_CompleteUnrollingINS0_31generic_dense_assignment_kernelINS0_9evaluatorINS_6MatrixIdLi1ELi2ELi1ELi1ELi2EEEEENS3_INS_9TransposeINS4_IdLi2ELi1ELi0ELi2ELi1EEEEEEENS0_9assign_opIddEELi0EEELi0ELi2EE3runERSD_, symObjAddr: 0x5100, symBinAddr: 0x1000063D8, symSize: 0x34 }
  - { offset: 0x1A333, size: 0x8, addend: 0x0, symName: __ZN5Eigen8internal31generic_dense_assignment_kernelINS0_9evaluatorINS_6MatrixIdLi1ELi2ELi1ELi1ELi2EEEEENS2_INS_9TransposeINS3_IdLi2ELi1ELi0ELi2ELi1EEEEEEENS0_9assign_opIddEELi0EE24assignPacketByOuterInnerILi16ELi16E19__simd128_float64_tEEvll, symObjAddr: 0x5134, symBinAddr: 0x10000640C, symSize: 0x60 }
  - { offset: 0x1A3B2, size: 0x8, addend: 0x0, symName: __ZN5Eigen8internal47copy_using_evaluator_innervec_CompleteUnrollingINS0_31generic_dense_assignment_kernelINS0_9evaluatorINS_6MatrixIdLi1ELi2ELi1ELi1ELi2EEEEENS3_INS_9TransposeINS4_IdLi2ELi1ELi0ELi2ELi1EEEEEEENS0_9assign_opIddEELi0EEELi2ELi2EE3runERSD_, symObjAddr: 0x5194, symBinAddr: 0x10000646C, symSize: 0x10 }
  - { offset: 0x1A3D2, size: 0x8, addend: 0x0, symName: __ZN5Eigen8internal31generic_dense_assignment_kernelINS0_9evaluatorINS_6MatrixIdLi1ELi2ELi1ELi1ELi2EEEEENS2_INS_9TransposeINS3_IdLi2ELi1ELi0ELi2ELi1EEEEEEENS0_9assign_opIddEELi0EE20rowIndexByOuterInnerEll, symObjAddr: 0x51A4, symBinAddr: 0x10000647C, symSize: 0x18 }
  - { offset: 0x1A405, size: 0x8, addend: 0x0, symName: __ZN5Eigen8internal31generic_dense_assignment_kernelINS0_9evaluatorINS_6MatrixIdLi1ELi2ELi1ELi1ELi2EEEEENS2_INS_9TransposeINS3_IdLi2ELi1ELi0ELi2ELi1EEEEEEENS0_9assign_opIddEELi0EE20colIndexByOuterInnerEll, symObjAddr: 0x51BC, symBinAddr: 0x100006494, symSize: 0x18 }
  - { offset: 0x1A438, size: 0x8, addend: 0x0, symName: __ZN5Eigen8internal31generic_dense_assignment_kernelINS0_9evaluatorINS_6MatrixIdLi1ELi2ELi1ELi1ELi2EEEEENS2_INS_9TransposeINS3_IdLi2ELi1ELi0ELi2ELi1EEEEEEENS0_9assign_opIddEELi0EE12assignPacketILi16ELi16E19__simd128_float64_tEEvll, symObjAddr: 0x51D4, symBinAddr: 0x1000064AC, symSize: 0x70 }
  - { offset: 0x1A4A3, size: 0x8, addend: 0x0, symName: __ZNK5Eigen8internal9assign_opIddE12assignPacketILi16E19__simd128_float64_tEEvPdRKT0_, symObjAddr: 0x5244, symBinAddr: 0x10000651C, symSize: 0x40 }
  - { offset: 0x1A520, size: 0x8, addend: 0x0, symName: __ZN5Eigen8internal9evaluatorINS_15PlainObjectBaseINS_6MatrixIdLi1ELi2ELi1ELi1ELi2EEEEEE8coeffRefEll, symObjAddr: 0x5284, symBinAddr: 0x10000655C, symSize: 0x54 }
  - { offset: 0x1A562, size: 0x8, addend: 0x0, symName: __ZNK5Eigen8internal15unary_evaluatorINS_9TransposeINS_6MatrixIdLi2ELi1ELi0ELi2ELi1EEEEENS0_10IndexBasedEdE6packetILi16E19__simd128_float64_tEET0_ll, symObjAddr: 0x52D8, symBinAddr: 0x1000065B0, symSize: 0x34 }
  - { offset: 0x1A5B9, size: 0x8, addend: 0x0, symName: __ZNK5Eigen8internal30plainobjectbase_evaluator_dataIdLi0EE11outerStrideEv, symObjAddr: 0x5338, symBinAddr: 0x100006610, symSize: 0x14 }
  - { offset: 0x1A5E9, size: 0x8, addend: 0x0, symName: __ZNK5Eigen8internal9evaluatorINS_15PlainObjectBaseINS_6MatrixIdLi2ELi1ELi0ELi2ELi1EEEEEE6packetILi16E19__simd128_float64_tEET0_ll, symObjAddr: 0x534C, symBinAddr: 0x100006624, symSize: 0x68 }
  - { offset: 0x1A65D, size: 0x8, addend: 0x0, symName: __ZN5Eigen8internal9evaluatorINS_6MatrixIdLi1ELi2ELi1ELi1ELi2EEEED2Ev, symObjAddr: 0x53DC, symBinAddr: 0x1000066B4, symSize: 0x2C }
  - { offset: 0x1A68A, size: 0x8, addend: 0x0, symName: __ZN5Eigen8internal9evaluatorINS_15PlainObjectBaseINS_6MatrixIdLi1ELi2ELi1ELi1ELi2EEEEEED2Ev, symObjAddr: 0x5408, symBinAddr: 0x1000066E0, symSize: 0x2C }
  - { offset: 0x1A6B6, size: 0x8, addend: 0x0, symName: __ZN5Eigen8internal9evaluatorINS_9TransposeINS_6MatrixIdLi2ELi1ELi0ELi2ELi1EEEEEED2Ev, symObjAddr: 0x5434, symBinAddr: 0x10000670C, symSize: 0x2C }
  - { offset: 0x1A6E2, size: 0x8, addend: 0x0, symName: __ZN5Eigen8internal15unary_evaluatorINS_9TransposeINS_6MatrixIdLi2ELi1ELi0ELi2ELi1EEEEENS0_10IndexBasedEdED2Ev, symObjAddr: 0x5460, symBinAddr: 0x100006738, symSize: 0x34 }
  - { offset: 0x1A70E, size: 0x8, addend: 0x0, symName: __ZN5Eigen8internal9evaluatorINS_6MatrixIdLi2ELi1ELi0ELi2ELi1EEEED1Ev, symObjAddr: 0x5494, symBinAddr: 0x10000676C, symSize: 0x2C }
  - { offset: 0x1A73B, size: 0x8, addend: 0x0, symName: __ZN5Eigen8internal9evaluatorINS_6MatrixIdLi2ELi1ELi0ELi2ELi1EEEED2Ev, symObjAddr: 0x54C0, symBinAddr: 0x100006798, symSize: 0x2C }
  - { offset: 0x1A768, size: 0x8, addend: 0x0, symName: __ZN5Eigen8internal9evaluatorINS_15PlainObjectBaseINS_6MatrixIdLi2ELi1ELi0ELi2ELi1EEEEEED2Ev, symObjAddr: 0x54EC, symBinAddr: 0x1000067C4, symSize: 0x2C }
  - { offset: 0x1A794, size: 0x8, addend: 0x0, symName: __ZN5Eigen8internal9assign_opIddEC2Ev, symObjAddr: 0x5518, symBinAddr: 0x1000067F0, symSize: 0x14 }
  - { offset: 0x1A7BE, size: 0x8, addend: 0x0, symName: __ZN5Eigen8IOFormatC2EiiRKNSt3__112basic_stringIcNS1_11char_traitsIcEENS1_9allocatorIcEEEES9_S9_S9_S9_S9_c, symObjAddr: 0x552C, symBinAddr: 0x100006804, symSize: 0x284 }
  - { offset: 0x1A87D, size: 0x8, addend: 0x0, symName: __ZNSt3__112basic_stringIcNS_11char_traitsIcEENS_9allocatorIcEEEixB8ne180100Em, symObjAddr: 0x57B0, symBinAddr: 0x100006A88, symSize: 0x48 }
  - { offset: 0x1A8B2, size: 0x8, addend: 0x0, symName: __ZNSt3__112basic_stringIcNS_11char_traitsIcEENS_9allocatorIcEEEpLB8ne180100Ec, symObjAddr: 0x57F8, symBinAddr: 0x100006AD0, symSize: 0x34 }
  - { offset: 0x1A8E7, size: 0x8, addend: 0x0, symName: __ZNSt3__112basic_stringIcNS_11char_traitsIcEENS_9allocatorIcEEE13__fits_in_ssoB8ne180100Em, symObjAddr: 0x582C, symBinAddr: 0x100006B04, symSize: 0x20 }
  - { offset: 0x1A90B, size: 0x8, addend: 0x0, symName: __ZNSt3__112basic_stringIcNS_11char_traitsIcEENS_9allocatorIcEEE18__get_long_pointerB8ne180100Ev, symObjAddr: 0x584C, symBinAddr: 0x100006B24, symSize: 0x28 }
  - { offset: 0x1A931, size: 0x8, addend: 0x0, symName: __ZNSt3__112basic_stringIcNS_11char_traitsIcEENS_9allocatorIcEEE13__get_pointerB8ne180100Ev, symObjAddr: 0x5874, symBinAddr: 0x100006B4C, symSize: 0x54 }
  - { offset: 0x1A957, size: 0x8, addend: 0x0, symName: __ZNSt3__117__compressed_pairINS_12basic_stringIcNS_11char_traitsIcEENS_9allocatorIcEEE5__repES5_E5firstB8ne180100Ev, symObjAddr: 0x58C8, symBinAddr: 0x100006BA0, symSize: 0x24 }
  - { offset: 0x1A97D, size: 0x8, addend: 0x0, symName: __ZNSt3__122__compressed_pair_elemINS_12basic_stringIcNS_11char_traitsIcEENS_9allocatorIcEEE5__repELi0ELb0EE5__getB8ne180100Ev, symObjAddr: 0x58EC, symBinAddr: 0x100006BC4, symSize: 0x14 }
  - { offset: 0x1A9A3, size: 0x8, addend: 0x0, symName: __ZNSt3__112basic_stringIcNS_11char_traitsIcEENS_9allocatorIcEEE19__get_short_pointerB8ne180100Ev, symObjAddr: 0x5900, symBinAddr: 0x100006BD8, symSize: 0x28 }
  - { offset: 0x1A9C9, size: 0x8, addend: 0x0, symName: __ZNSt3__114pointer_traitsIPcE10pointer_toB8ne180100ERc, symObjAddr: 0x5928, symBinAddr: 0x100006C00, symSize: 0x14 }
  - { offset: 0x1A9EC, size: 0x8, addend: 0x0, symName: __ZN5Eigen8IOFormatD2Ev, symObjAddr: 0x593C, symBinAddr: 0x100006C14, symSize: 0x74 }
...
